
SISEM_2026_2DA_08_A.elf:     file format elf32-littlearm

Sections:
Idx Name          Size      VMA       LMA       File off  Algn
  0 .text         000039c8  08000000  0c000000  00008000  2**2
                  CONTENTS, ALLOC, LOAD, READONLY, CODE
  1 Stack         00000800  1fffc000  1fffc000  00014000  2**0
                  ALLOC
  2 .data         00000194  1fffc800  0c0039c8  0000c800  2**3
                  CONTENTS, ALLOC, LOAD, DATA
  3 .bss          0000011c  1fffc994  0c003b5c  0000c994  2**2
                  ALLOC
  4 .no_init      00000020  20005fc0  20005fc0  00014000  2**2
                  ALLOC
  5 .debug_frame  000003e8  00000000  00000000  0000c994  2**2
                  CONTENTS, READONLY, DEBUGGING
  6 .build_attributes 00000dc7  00000000  00000000  0000cd7c  2**0
                  CONTENTS, READONLY

Disassembly of section .text:

08000000 <__Vectors>:
 8000000:	00 c8 ff 1f 01 02 00 08 91 02 00 08 91 02 00 08     ................
 8000010:	91 02 00 08 91 02 00 08 91 02 00 08 00 00 00 00     ................
	...
 800002c:	91 02 00 08 91 02 00 08 00 00 00 00 91 02 00 08     ................
 800003c:	91 02 00 08 91 02 00 08 91 02 00 08 91 02 00 08     ................
 800004c:	91 02 00 08 91 02 00 08 35 09 00 08 91 02 00 08     ........5.......
 800005c:	91 02 00 08 91 02 00 08 00 00 00 00 00 00 00 00     ................
 800006c:	00 00 00 00 91 02 00 08 00 00 00 00 91 02 00 08     ................
 800007c:	91 02 00 08 91 02 00 08 91 02 00 08 91 02 00 08     ................
 800008c:	91 02 00 08 91 02 00 08 91 02 00 08 91 02 00 08     ................
 800009c:	91 02 00 08 91 02 00 08 91 02 00 08 00 00 00 00     ................
	...
 80000e8:	91 02 00 08 91 02 00 08 91 02 00 08 91 02 00 08     ................
 80000f8:	91 02 00 08 91 02 00 08 91 02 00 08 0d 09 00 08     ................
 8000108:	91 02 00 08 91 02 00 08 00 00 00 00 00 00 00 00     ................
	...
 8000130:	91 02 00 08 91 02 00 08 91 02 00 08 91 02 00 08     ................
	...
 8000150:	91 02 00 08 91 02 00 08 00 00 00 00 00 00 00 00     ................
 8000160:	91 02 00 08 91 02 00 08 91 02 00 08 91 02 00 08     ................
 8000170:	91 02 00 08 91 02 00 08 91 02 00 08 91 02 00 08     ................
 8000180:	91 02 00 08 91 02 00 08 91 02 00 08 91 02 00 08     ................
 8000190:	91 02 00 08 91 02 00 08 91 02 00 08 b1 21 00 08     .............!..
 80001a0:	91 02 00 08 bd 21 00 08 d5 21 00 08 c9 21 00 08     .....!...!...!..
 80001b0:	91 02 00 08 91 02 00 08 91 02 00 08 91 02 00 08     ................
	...
 80001d8:	91 02 00 08 00 00 00 00 91 02 00 08 91 02 00 08     ................
 80001e8:	00 00 00 00 91 02 00 08 00 00 00 00 00 00 00 00     ................
	...

08000200 <Reset_Handler>:
 8000200:	f8df d06c 	ldr.w	sp, [pc, #108]	; 8000270 <__zero_table_end__>
 8000204:	481b      	ldr	r0, [pc, #108]	; (8000274 <__zero_table_end__+0x4>)
 8000206:	4780      	blx	r0
 8000208:	4c1b      	ldr	r4, [pc, #108]	; (8000278 <__zero_table_end__+0x8>)
 800020a:	4d1c      	ldr	r5, [pc, #112]	; (800027c <__zero_table_end__+0xc>)
 800020c:	42ac      	cmp	r4, r5
 800020e:	da09      	bge.n	8000224 <Reset_Handler+0x24>
 8000210:	6821      	ldr	r1, [r4, #0]
 8000212:	6862      	ldr	r2, [r4, #4]
 8000214:	68a3      	ldr	r3, [r4, #8]
 8000216:	3b04      	subs	r3, #4
 8000218:	bfa2      	ittt	ge
 800021a:	58c8      	ldrge	r0, [r1, r3]
 800021c:	50d0      	strge	r0, [r2, r3]
 800021e:	e7fa      	bge.n	8000216 <Reset_Handler+0x16>
 8000220:	340c      	adds	r4, #12
 8000222:	e7f3      	b.n	800020c <Reset_Handler+0xc>
 8000224:	4b16      	ldr	r3, [pc, #88]	; (8000280 <__zero_table_end__+0x10>)
 8000226:	4c17      	ldr	r4, [pc, #92]	; (8000284 <__zero_table_end__+0x14>)
 8000228:	42a3      	cmp	r3, r4
 800022a:	da08      	bge.n	800023e <Reset_Handler+0x3e>
 800022c:	6819      	ldr	r1, [r3, #0]
 800022e:	685a      	ldr	r2, [r3, #4]
 8000230:	2000      	movs	r0, #0
 8000232:	3a04      	subs	r2, #4
 8000234:	bfa4      	itt	ge
 8000236:	5088      	strge	r0, [r1, r2]
 8000238:	e7fb      	bge.n	8000232 <Reset_Handler+0x32>
 800023a:	3308      	adds	r3, #8
 800023c:	e7f4      	b.n	8000228 <Reset_Handler+0x28>
 800023e:	4812      	ldr	r0, [pc, #72]	; (8000288 <__zero_table_end__+0x18>)
 8000240:	4780      	blx	r0
 8000242:	4812      	ldr	r0, [pc, #72]	; (800028c <__zero_table_end__+0x1c>)
 8000244:	4780      	blx	r0
	...

08000248 <__copy_table_start__>:
 8000248:	0c0039c8 	.word	0x0c0039c8
 800024c:	1fffc800 	.word	0x1fffc800
 8000250:	00000194 	.word	0x00000194
 8000254:	0c0039c8 	.word	0x0c0039c8
 8000258:	1fffc800 	.word	0x1fffc800
 800025c:	00000000 	.word	0x00000000

08000260 <__copy_table_end__>:
 8000260:	1fffc994 	.word	0x1fffc994
 8000264:	0000011c 	.word	0x0000011c
 8000268:	20000000 	.word	0x20000000
 800026c:	00000000 	.word	0x00000000

08000270 <__zero_table_end__>:
 8000270:	1fffc800 	.word	0x1fffc800
 8000274:	08000c39 	.word	0x08000c39
 8000278:	08000248 	.word	0x08000248
 800027c:	08000260 	.word	0x08000260
 8000280:	08000260 	.word	0x08000260
 8000284:	08000270 	.word	0x08000270
 8000288:	08002c41 	.word	0x08002c41
 800028c:	08000939 	.word	0x08000939

08000290 <BusFault_Handler>:
 8000290:	e7fe      	b.n	8000290 <BusFault_Handler>
	...

08000294 <ADC_Update>:
 8000294:	b508      	push	{r3, lr}
 8000296:	4803      	ldr	r0, [pc, #12]	; (80002a4 <ADC_Update+0x10>)
 8000298:	f002 fc82 	bl	8002ba0 <ADC_MEASUREMENT_GetResult>
 800029c:	4b02      	ldr	r3, [pc, #8]	; (80002a8 <ADC_Update+0x14>)
 800029e:	8018      	strh	r0, [r3, #0]
 80002a0:	bd08      	pop	{r3, pc}
 80002a2:	bf00      	nop
 80002a4:	1fffc90c 	.word	0x1fffc90c
 80002a8:	1fffc994 	.word	0x1fffc994

080002ac <ADC_GetValue>:
 80002ac:	4b01      	ldr	r3, [pc, #4]	; (80002b4 <ADC_GetValue+0x8>)
 80002ae:	8818      	ldrh	r0, [r3, #0]
 80002b0:	4770      	bx	lr
 80002b2:	bf00      	nop
 80002b4:	1fffc994 	.word	0x1fffc994

080002b8 <APP_AHT10_Init>:
 80002b8:	b57f      	push	{r0, r1, r2, r3, r4, r5, r6, lr}
 80002ba:	23ba      	movs	r3, #186	; 0xba
 80002bc:	f88d 300b 	strb.w	r3, [sp, #11]
 80002c0:	4b16      	ldr	r3, [pc, #88]	; (800031c <APP_AHT10_Init+0x64>)
 80002c2:	4817      	ldr	r0, [pc, #92]	; (8000320 <APP_AHT10_Init+0x68>)
 80002c4:	881a      	ldrh	r2, [r3, #0]
 80002c6:	789b      	ldrb	r3, [r3, #2]
 80002c8:	f8ad 200c 	strh.w	r2, [sp, #12]
 80002cc:	2101      	movs	r1, #1
 80002ce:	f88d 300e 	strb.w	r3, [sp, #14]
 80002d2:	9100      	str	r1, [sp, #0]
 80002d4:	f10d 030b 	add.w	r3, sp, #11
 80002d8:	9101      	str	r1, [sp, #4]
 80002da:	2270      	movs	r2, #112	; 0x70
 80002dc:	f002 f8a7 	bl	800242e <I2C_MASTER_Transmit>
 80002e0:	2300      	movs	r3, #0
 80002e2:	9304      	str	r3, [sp, #16]
 80002e4:	9a04      	ldr	r2, [sp, #16]
 80002e6:	4b0f      	ldr	r3, [pc, #60]	; (8000324 <APP_AHT10_Init+0x6c>)
 80002e8:	429a      	cmp	r2, r3
 80002ea:	d802      	bhi.n	80002f2 <APP_AHT10_Init+0x3a>
 80002ec:	9b04      	ldr	r3, [sp, #16]
 80002ee:	3301      	adds	r3, #1
 80002f0:	e7f7      	b.n	80002e2 <APP_AHT10_Init+0x2a>
 80002f2:	2303      	movs	r3, #3
 80002f4:	2101      	movs	r1, #1
 80002f6:	9300      	str	r3, [sp, #0]
 80002f8:	9101      	str	r1, [sp, #4]
 80002fa:	ab03      	add	r3, sp, #12
 80002fc:	4808      	ldr	r0, [pc, #32]	; (8000320 <APP_AHT10_Init+0x68>)
 80002fe:	2270      	movs	r2, #112	; 0x70
 8000300:	f002 f895 	bl	800242e <I2C_MASTER_Transmit>
 8000304:	2300      	movs	r3, #0
 8000306:	9305      	str	r3, [sp, #20]
 8000308:	9a05      	ldr	r2, [sp, #20]
 800030a:	4b06      	ldr	r3, [pc, #24]	; (8000324 <APP_AHT10_Init+0x6c>)
 800030c:	429a      	cmp	r2, r3
 800030e:	d802      	bhi.n	8000316 <APP_AHT10_Init+0x5e>
 8000310:	9b05      	ldr	r3, [sp, #20]
 8000312:	3301      	adds	r3, #1
 8000314:	e7f7      	b.n	8000306 <APP_AHT10_Init+0x4e>
 8000316:	b007      	add	sp, #28
 8000318:	f85d fb04 	ldr.w	pc, [sp], #4
 800031c:	08003520 	.word	0x08003520
 8000320:	1fffc858 	.word	0x1fffc858
 8000324:	000493df 	.word	0x000493df

08000328 <APP_AHT10_Read>:
 8000328:	b530      	push	{r4, r5, lr}
 800032a:	4b36      	ldr	r3, [pc, #216]	; (8000404 <APP_AHT10_Read+0xdc>)
 800032c:	4836      	ldr	r0, [pc, #216]	; (8000408 <APP_AHT10_Read+0xe0>)
 800032e:	881a      	ldrh	r2, [r3, #0]
 8000330:	789b      	ldrb	r3, [r3, #2]
 8000332:	b089      	sub	sp, #36	; 0x24
 8000334:	2101      	movs	r1, #1
 8000336:	f88d 3012 	strb.w	r3, [sp, #18]
 800033a:	2303      	movs	r3, #3
 800033c:	f8ad 2010 	strh.w	r2, [sp, #16]
 8000340:	9300      	str	r3, [sp, #0]
 8000342:	9101      	str	r1, [sp, #4]
 8000344:	2270      	movs	r2, #112	; 0x70
 8000346:	ab04      	add	r3, sp, #16
 8000348:	f002 f871 	bl	800242e <I2C_MASTER_Transmit>
 800034c:	b108      	cbz	r0, 8000352 <APP_AHT10_Read+0x2a>
 800034e:	2000      	movs	r0, #0
 8000350:	e055      	b.n	80003fe <APP_AHT10_Read+0xd6>
 8000352:	250a      	movs	r5, #10
 8000354:	2300      	movs	r3, #0
 8000356:	9305      	str	r3, [sp, #20]
 8000358:	9a05      	ldr	r2, [sp, #20]
 800035a:	4b2c      	ldr	r3, [pc, #176]	; (800040c <APP_AHT10_Read+0xe4>)
 800035c:	429a      	cmp	r2, r3
 800035e:	d802      	bhi.n	8000366 <APP_AHT10_Read+0x3e>
 8000360:	9b05      	ldr	r3, [sp, #20]
 8000362:	3301      	adds	r3, #1
 8000364:	e7f7      	b.n	8000356 <APP_AHT10_Read+0x2e>
 8000366:	2401      	movs	r4, #1
 8000368:	2306      	movs	r3, #6
 800036a:	e88d 0018 	stmia.w	sp, {r3, r4}
 800036e:	9402      	str	r4, [sp, #8]
 8000370:	4825      	ldr	r0, [pc, #148]	; (8000408 <APP_AHT10_Read+0xe0>)
 8000372:	4621      	mov	r1, r4
 8000374:	2270      	movs	r2, #112	; 0x70
 8000376:	ab06      	add	r3, sp, #24
 8000378:	f002 f8dd 	bl	8002536 <I2C_MASTER_Receive>
 800037c:	2800      	cmp	r0, #0
 800037e:	d1e6      	bne.n	800034e <APP_AHT10_Read+0x26>
 8000380:	f99d 3018 	ldrsb.w	r3, [sp, #24]
 8000384:	3d01      	subs	r5, #1
 8000386:	2b00      	cmp	r3, #0
 8000388:	b2ed      	uxtb	r5, r5
 800038a:	da02      	bge.n	8000392 <APP_AHT10_Read+0x6a>
 800038c:	2d00      	cmp	r5, #0
 800038e:	d1e1      	bne.n	8000354 <APP_AHT10_Read+0x2c>
 8000390:	e7dd      	b.n	800034e <APP_AHT10_Read+0x26>
 8000392:	2d00      	cmp	r5, #0
 8000394:	d0db      	beq.n	800034e <APP_AHT10_Read+0x26>
 8000396:	f89d 501b 	ldrb.w	r5, [sp, #27]
 800039a:	f89d 301c 	ldrb.w	r3, [sp, #28]
 800039e:	f89d 201d 	ldrb.w	r2, [sp, #29]
 80003a2:	ed9f 7a1b 	vldr	s14, [pc, #108]	; 8000410 <APP_AHT10_Read+0xe8>
 80003a6:	eddf 6a1b 	vldr	s13, [pc, #108]	; 8000414 <APP_AHT10_Read+0xec>
 80003aa:	481b      	ldr	r0, [pc, #108]	; (8000418 <APP_AHT10_Read+0xf0>)
 80003ac:	ea42 2203 	orr.w	r2, r2, r3, lsl #8
 80003b0:	f005 010f 	and.w	r1, r5, #15
 80003b4:	ea42 4101 	orr.w	r1, r2, r1, lsl #16
 80003b8:	f89d 2019 	ldrb.w	r2, [sp, #25]
 80003bc:	f89d 301a 	ldrb.w	r3, [sp, #26]
 80003c0:	7204      	strb	r4, [r0, #8]
 80003c2:	0312      	lsls	r2, r2, #12
 80003c4:	ea42 1303 	orr.w	r3, r2, r3, lsl #4
 80003c8:	ea43 1315 	orr.w	r3, r3, r5, lsr #4
 80003cc:	ee07 3a90 	vmov	s15, r3
 80003d0:	eef8 7ae7 	vcvt.f32.s32	s15, s15
 80003d4:	ee67 7a87 	vmul.f32	s15, s15, s14
 80003d8:	ed9f 7a10 	vldr	s14, [pc, #64]	; 800041c <APP_AHT10_Read+0xf4>
 80003dc:	ee67 7aa6 	vmul.f32	s15, s15, s13
 80003e0:	edc0 7a01 	vstr	s15, [r0, #4]
 80003e4:	ee07 1a90 	vmov	s15, r1
 80003e8:	eef8 7ae7 	vcvt.f32.s32	s15, s15
 80003ec:	ee67 7a87 	vmul.f32	s15, s15, s14
 80003f0:	ed9f 7a0b 	vldr	s14, [pc, #44]	; 8000420 <APP_AHT10_Read+0xf8>
 80003f4:	eea7 7aa6 	vfma.f32	s14, s15, s13
 80003f8:	ed80 7a00 	vstr	s14, [r0]
 80003fc:	4620      	mov	r0, r4
 80003fe:	b009      	add	sp, #36	; 0x24
 8000400:	bd30      	pop	{r4, r5, pc}
 8000402:	bf00      	nop
 8000404:	08003523 	.word	0x08003523
 8000408:	1fffc858 	.word	0x1fffc858
 800040c:	0003d08f 	.word	0x0003d08f
 8000410:	42c80000 	.word	0x42c80000
 8000414:	35800000 	.word	0x35800000
 8000418:	1fffc998 	.word	0x1fffc998
 800041c:	43480000 	.word	0x43480000
 8000420:	c2480000 	.word	0xc2480000

08000424 <APP_Init>:
 8000424:	b508      	push	{r3, lr}
 8000426:	f000 fa35 	bl	8000894 <LED_Init>
 800042a:	f000 faa7 	bl	800097c <APP_UART_Init>
 800042e:	f7ff ff43 	bl	80002b8 <APP_AHT10_Init>
 8000432:	f000 f94b 	bl	80006cc <LCD_Init>
 8000436:	e8bd 4008 	ldmia.w	sp!, {r3, lr}
 800043a:	f000 b81b 	b.w	8000474 <Bluetooth_Init>

0800043e <APP_Run>:
 800043e:	b508      	push	{r3, lr}
 8000440:	f7ff ff28 	bl	8000294 <ADC_Update>
 8000444:	f000 fba0 	bl	8000b88 <APP_UART_Task>
 8000448:	f000 f9f2 	bl	8000830 <LCD_Task>
 800044c:	f000 f892 	bl	8000574 <APP_CAN_Task>
 8000450:	e8bd 4008 	ldmia.w	sp!, {r3, lr}
 8000454:	f000 b82a 	b.w	80004ac <Bluetooth_Task>

08000458 <Bluetooth_SendString>:
 8000458:	b510      	push	{r4, lr}
 800045a:	4604      	mov	r4, r0
 800045c:	f002 fc78 	bl	8002d50 <strlen>
 8000460:	4621      	mov	r1, r4
 8000462:	4602      	mov	r2, r0
 8000464:	e8bd 4010 	ldmia.w	sp!, {r4, lr}
 8000468:	4801      	ldr	r0, [pc, #4]	; (8000470 <Bluetooth_SendString+0x18>)
 800046a:	f001 bce8 	b.w	8001e3e <UART_Transmit>
 800046e:	bf00      	nop
 8000470:	1fffc81c 	.word	0x1fffc81c

08000474 <Bluetooth_Init>:
 8000474:	4801      	ldr	r0, [pc, #4]	; (800047c <Bluetooth_Init+0x8>)
 8000476:	f7ff bfef 	b.w	8000458 <Bluetooth_SendString>
 800047a:	bf00      	nop
 800047c:	08003526 	.word	0x08003526

08000480 <Bluetooth_ProcessCommand>:
 8000480:	2833      	cmp	r0, #51	; 0x33
 8000482:	b508      	push	{r3, lr}
 8000484:	d10a      	bne.n	800049c <Bluetooth_ProcessCommand+0x1c>
 8000486:	2002      	movs	r0, #2
 8000488:	f000 f9f2 	bl	8000870 <LCD_SetPage>
 800048c:	4805      	ldr	r0, [pc, #20]	; (80004a4 <Bluetooth_ProcessCommand+0x24>)
 800048e:	f000 f9f5 	bl	800087c <LCD_ShowMessage>
 8000492:	4805      	ldr	r0, [pc, #20]	; (80004a8 <Bluetooth_ProcessCommand+0x28>)
 8000494:	e8bd 4008 	ldmia.w	sp!, {r3, lr}
 8000498:	f7ff bfde 	b.w	8000458 <Bluetooth_SendString>
 800049c:	e8bd 4008 	ldmia.w	sp!, {r3, lr}
 80004a0:	f000 ba72 	b.w	8000988 <APP_UART_ProcessCommand>
 80004a4:	08003535 	.word	0x08003535
 80004a8:	0800353e 	.word	0x0800353e

080004ac <Bluetooth_Task>:
 80004ac:	b538      	push	{r3, r4, r5, lr}
 80004ae:	4c07      	ldr	r4, [pc, #28]	; (80004cc <Bluetooth_Task+0x20>)
 80004b0:	4807      	ldr	r0, [pc, #28]	; (80004d0 <Bluetooth_Task+0x24>)
 80004b2:	4621      	mov	r1, r4
 80004b4:	2201      	movs	r2, #1
 80004b6:	f001 fcfc 	bl	8001eb2 <UART_Receive>
 80004ba:	4605      	mov	r5, r0
 80004bc:	b920      	cbnz	r0, 80004c8 <Bluetooth_Task+0x1c>
 80004be:	7820      	ldrb	r0, [r4, #0]
 80004c0:	b110      	cbz	r0, 80004c8 <Bluetooth_Task+0x1c>
 80004c2:	f7ff ffdd 	bl	8000480 <Bluetooth_ProcessCommand>
 80004c6:	7025      	strb	r5, [r4, #0]
 80004c8:	bd38      	pop	{r3, r4, r5, pc}
 80004ca:	bf00      	nop
 80004cc:	1fffc9a4 	.word	0x1fffc9a4
 80004d0:	1fffc81c 	.word	0x1fffc81c

080004d4 <APP_CAN_RequestTx>:
 80004d4:	4b01      	ldr	r3, [pc, #4]	; (80004dc <APP_CAN_RequestTx+0x8>)
 80004d6:	2201      	movs	r2, #1
 80004d8:	701a      	strb	r2, [r3, #0]
 80004da:	4770      	bx	lr
 80004dc:	1fffc9a8 	.word	0x1fffc9a8

080004e0 <APP_CAN_GetTxID>:
 80004e0:	4b02      	ldr	r3, [pc, #8]	; (80004ec <APP_CAN_GetTxID+0xc>)
 80004e2:	781a      	ldrb	r2, [r3, #0]
 80004e4:	4b02      	ldr	r3, [pc, #8]	; (80004f0 <APP_CAN_GetTxID+0x10>)
 80004e6:	f833 0012 	ldrh.w	r0, [r3, r2, lsl #1]
 80004ea:	4770      	bx	lr
 80004ec:	1fffc800 	.word	0x1fffc800
 80004f0:	08003552 	.word	0x08003552

080004f4 <APP_CAN_NextTxID>:
 80004f4:	4a04      	ldr	r2, [pc, #16]	; (8000508 <APP_CAN_NextTxID+0x14>)
 80004f6:	7813      	ldrb	r3, [r2, #0]
 80004f8:	3301      	adds	r3, #1
 80004fa:	b2db      	uxtb	r3, r3
 80004fc:	2b13      	cmp	r3, #19
 80004fe:	bf88      	it	hi
 8000500:	2300      	movhi	r3, #0
 8000502:	7013      	strb	r3, [r2, #0]
 8000504:	4770      	bx	lr
 8000506:	bf00      	nop
 8000508:	1fffc800 	.word	0x1fffc800

0800050c <APP_CAN_PrevTxID>:
 800050c:	4a03      	ldr	r2, [pc, #12]	; (800051c <APP_CAN_PrevTxID+0x10>)
 800050e:	7813      	ldrb	r3, [r2, #0]
 8000510:	b90b      	cbnz	r3, 8000516 <APP_CAN_PrevTxID+0xa>
 8000512:	2313      	movs	r3, #19
 8000514:	e000      	b.n	8000518 <APP_CAN_PrevTxID+0xc>
 8000516:	3b01      	subs	r3, #1
 8000518:	7013      	strb	r3, [r2, #0]
 800051a:	4770      	bx	lr
 800051c:	1fffc800 	.word	0x1fffc800

08000520 <APP_CAN_Transmit>:
 8000520:	4b13      	ldr	r3, [pc, #76]	; (8000570 <APP_CAN_Transmit+0x50>)
 8000522:	b510      	push	{r4, lr}
 8000524:	691c      	ldr	r4, [r3, #16]
 8000526:	6823      	ldr	r3, [r4, #0]
 8000528:	731a      	strb	r2, [r3, #12]
 800052a:	685a      	ldr	r2, [r3, #4]
 800052c:	f360 021c 	bfi	r2, r0, #0, #29
 8000530:	605a      	str	r2, [r3, #4]
 8000532:	788a      	ldrb	r2, [r1, #2]
 8000534:	7848      	ldrb	r0, [r1, #1]
 8000536:	0412      	lsls	r2, r2, #16
 8000538:	ea42 2200 	orr.w	r2, r2, r0, lsl #8
 800053c:	7808      	ldrb	r0, [r1, #0]
 800053e:	4302      	orrs	r2, r0
 8000540:	78c8      	ldrb	r0, [r1, #3]
 8000542:	ea42 6200 	orr.w	r2, r2, r0, lsl #24
 8000546:	611a      	str	r2, [r3, #16]
 8000548:	798a      	ldrb	r2, [r1, #6]
 800054a:	7948      	ldrb	r0, [r1, #5]
 800054c:	0412      	lsls	r2, r2, #16
 800054e:	ea42 2200 	orr.w	r2, r2, r0, lsl #8
 8000552:	7908      	ldrb	r0, [r1, #4]
 8000554:	79c9      	ldrb	r1, [r1, #7]
 8000556:	4302      	orrs	r2, r0
 8000558:	ea42 6201 	orr.w	r2, r2, r1, lsl #24
 800055c:	4620      	mov	r0, r4
 800055e:	615a      	str	r2, [r3, #20]
 8000560:	f002 f9c4 	bl	80028ec <CAN_NODE_MO_Init>
 8000564:	4620      	mov	r0, r4
 8000566:	e8bd 4010 	ldmia.w	sp!, {r4, lr}
 800056a:	f002 b9e2 	b.w	8002932 <CAN_NODE_MO_Transmit>
 800056e:	bf00      	nop
 8000570:	080038d0 	.word	0x080038d0

08000574 <APP_CAN_Task>:
 8000574:	b507      	push	{r0, r1, r2, lr}
 8000576:	4b20      	ldr	r3, [pc, #128]	; (80005f8 <APP_CAN_Task+0x84>)
 8000578:	781a      	ldrb	r2, [r3, #0]
 800057a:	b3ca      	cbz	r2, 80005f0 <APP_CAN_Task+0x7c>
 800057c:	2200      	movs	r2, #0
 800057e:	701a      	strb	r2, [r3, #0]
 8000580:	f7ff fed2 	bl	8000328 <APP_AHT10_Read>
 8000584:	4a1d      	ldr	r2, [pc, #116]	; (80005fc <APP_CAN_Task+0x88>)
 8000586:	ed9f 7a1e 	vldr	s14, [pc, #120]	; 8000600 <APP_CAN_Task+0x8c>
 800058a:	edd2 7a00 	vldr	s15, [r2]
 800058e:	ee77 7a87 	vadd.f32	s15, s15, s14
 8000592:	eeb2 7a04 	vmov.f32	s14, #36	; 0x24
 8000596:	ee67 7a87 	vmul.f32	s15, s15, s14
 800059a:	eefd 7ae7 	vcvt.s32.f32	s15, s15
 800059e:	ee17 3a90 	vmov	r3, s15
 80005a2:	edd2 7a01 	vldr	s15, [r2, #4]
 80005a6:	f88d 3000 	strb.w	r3, [sp]
 80005aa:	ee67 7a87 	vmul.f32	s15, s15, s14
 80005ae:	1219      	asrs	r1, r3, #8
 80005b0:	eefc 7ae7 	vcvt.u32.f32	s15, s15
 80005b4:	f88d 1001 	strb.w	r1, [sp, #1]
 80005b8:	ee17 2a90 	vmov	r2, s15
 80005bc:	1419      	asrs	r1, r3, #16
 80005be:	161b      	asrs	r3, r3, #24
 80005c0:	f88d 3003 	strb.w	r3, [sp, #3]
 80005c4:	0a13      	lsrs	r3, r2, #8
 80005c6:	f88d 3005 	strb.w	r3, [sp, #5]
 80005ca:	0c13      	lsrs	r3, r2, #16
 80005cc:	f88d 3006 	strb.w	r3, [sp, #6]
 80005d0:	4b0c      	ldr	r3, [pc, #48]	; (8000604 <APP_CAN_Task+0x90>)
 80005d2:	f88d 2004 	strb.w	r2, [sp, #4]
 80005d6:	0e12      	lsrs	r2, r2, #24
 80005d8:	f88d 2007 	strb.w	r2, [sp, #7]
 80005dc:	781a      	ldrb	r2, [r3, #0]
 80005de:	4b0a      	ldr	r3, [pc, #40]	; (8000608 <APP_CAN_Task+0x94>)
 80005e0:	f88d 1002 	strb.w	r1, [sp, #2]
 80005e4:	f833 0012 	ldrh.w	r0, [r3, r2, lsl #1]
 80005e8:	4669      	mov	r1, sp
 80005ea:	2208      	movs	r2, #8
 80005ec:	f7ff ff98 	bl	8000520 <APP_CAN_Transmit>
 80005f0:	b003      	add	sp, #12
 80005f2:	f85d fb04 	ldr.w	pc, [sp], #4
 80005f6:	bf00      	nop
 80005f8:	1fffc9a8 	.word	0x1fffc9a8
 80005fc:	1fffc998 	.word	0x1fffc998
 8000600:	425c0000 	.word	0x425c0000
 8000604:	1fffc800 	.word	0x1fffc800
 8000608:	08003552 	.word	0x08003552

0800060c <LCD_Send_Cmd>:
 800060c:	b51f      	push	{r0, r1, r2, r3, r4, lr}
 800060e:	f000 03f0 	and.w	r3, r0, #240	; 0xf0
 8000612:	0100      	lsls	r0, r0, #4
 8000614:	f043 020c 	orr.w	r2, r3, #12
 8000618:	b2c0      	uxtb	r0, r0
 800061a:	f043 0308 	orr.w	r3, r3, #8
 800061e:	f88d 3009 	strb.w	r3, [sp, #9]
 8000622:	f040 030c 	orr.w	r3, r0, #12
 8000626:	f88d 300a 	strb.w	r3, [sp, #10]
 800062a:	f040 0008 	orr.w	r0, r0, #8
 800062e:	2304      	movs	r3, #4
 8000630:	2101      	movs	r1, #1
 8000632:	f88d 2008 	strb.w	r2, [sp, #8]
 8000636:	f88d 000b 	strb.w	r0, [sp, #11]
 800063a:	9300      	str	r3, [sp, #0]
 800063c:	9101      	str	r1, [sp, #4]
 800063e:	ab02      	add	r3, sp, #8
 8000640:	4808      	ldr	r0, [pc, #32]	; (8000664 <LCD_Send_Cmd+0x58>)
 8000642:	224e      	movs	r2, #78	; 0x4e
 8000644:	f001 fef3 	bl	800242e <I2C_MASTER_Transmit>
 8000648:	2300      	movs	r3, #0
 800064a:	9303      	str	r3, [sp, #12]
 800064c:	9a03      	ldr	r2, [sp, #12]
 800064e:	f644 631f 	movw	r3, #19999	; 0x4e1f
 8000652:	429a      	cmp	r2, r3
 8000654:	d802      	bhi.n	800065c <LCD_Send_Cmd+0x50>
 8000656:	9b03      	ldr	r3, [sp, #12]
 8000658:	3301      	adds	r3, #1
 800065a:	e7f6      	b.n	800064a <LCD_Send_Cmd+0x3e>
 800065c:	b005      	add	sp, #20
 800065e:	f85d fb04 	ldr.w	pc, [sp], #4
 8000662:	bf00      	nop
 8000664:	1fffc858 	.word	0x1fffc858

08000668 <LCD_Send_Data>:
 8000668:	b51f      	push	{r0, r1, r2, r3, r4, lr}
 800066a:	f000 03f0 	and.w	r3, r0, #240	; 0xf0
 800066e:	0100      	lsls	r0, r0, #4
 8000670:	f043 020d 	orr.w	r2, r3, #13
 8000674:	b2c0      	uxtb	r0, r0
 8000676:	f043 0309 	orr.w	r3, r3, #9
 800067a:	f88d 3009 	strb.w	r3, [sp, #9]
 800067e:	f040 030d 	orr.w	r3, r0, #13
 8000682:	f88d 300a 	strb.w	r3, [sp, #10]
 8000686:	f040 0009 	orr.w	r0, r0, #9
 800068a:	2304      	movs	r3, #4
 800068c:	2101      	movs	r1, #1
 800068e:	f88d 2008 	strb.w	r2, [sp, #8]
 8000692:	f88d 000b 	strb.w	r0, [sp, #11]
 8000696:	9300      	str	r3, [sp, #0]
 8000698:	9101      	str	r1, [sp, #4]
 800069a:	ab02      	add	r3, sp, #8
 800069c:	4808      	ldr	r0, [pc, #32]	; (80006c0 <LCD_Send_Data+0x58>)
 800069e:	224e      	movs	r2, #78	; 0x4e
 80006a0:	f001 fec5 	bl	800242e <I2C_MASTER_Transmit>
 80006a4:	2300      	movs	r3, #0
 80006a6:	9303      	str	r3, [sp, #12]
 80006a8:	9a03      	ldr	r2, [sp, #12]
 80006aa:	f644 631f 	movw	r3, #19999	; 0x4e1f
 80006ae:	429a      	cmp	r2, r3
 80006b0:	d802      	bhi.n	80006b8 <LCD_Send_Data+0x50>
 80006b2:	9b03      	ldr	r3, [sp, #12]
 80006b4:	3301      	adds	r3, #1
 80006b6:	e7f6      	b.n	80006a6 <LCD_Send_Data+0x3e>
 80006b8:	b005      	add	sp, #20
 80006ba:	f85d fb04 	ldr.w	pc, [sp], #4
 80006be:	bf00      	nop
 80006c0:	1fffc858 	.word	0x1fffc858

080006c4 <LCD_Clear>:
 80006c4:	2001      	movs	r0, #1
 80006c6:	f7ff bfa1 	b.w	800060c <LCD_Send_Cmd>
	...

080006cc <LCD_Init>:
 80006cc:	b507      	push	{r0, r1, r2, lr}
 80006ce:	2033      	movs	r0, #51	; 0x33
 80006d0:	f7ff ff9c 	bl	800060c <LCD_Send_Cmd>
 80006d4:	2032      	movs	r0, #50	; 0x32
 80006d6:	f7ff ff99 	bl	800060c <LCD_Send_Cmd>
 80006da:	2028      	movs	r0, #40	; 0x28
 80006dc:	f7ff ff96 	bl	800060c <LCD_Send_Cmd>
 80006e0:	200c      	movs	r0, #12
 80006e2:	f7ff ff93 	bl	800060c <LCD_Send_Cmd>
 80006e6:	2001      	movs	r0, #1
 80006e8:	f7ff ff90 	bl	800060c <LCD_Send_Cmd>
 80006ec:	2006      	movs	r0, #6
 80006ee:	f7ff ff8d 	bl	800060c <LCD_Send_Cmd>
 80006f2:	4b07      	ldr	r3, [pc, #28]	; (8000710 <LCD_Init+0x44>)
 80006f4:	2201      	movs	r2, #1
 80006f6:	701a      	strb	r2, [r3, #0]
 80006f8:	2300      	movs	r3, #0
 80006fa:	9301      	str	r3, [sp, #4]
 80006fc:	9a01      	ldr	r2, [sp, #4]
 80006fe:	4b05      	ldr	r3, [pc, #20]	; (8000714 <LCD_Init+0x48>)
 8000700:	429a      	cmp	r2, r3
 8000702:	d802      	bhi.n	800070a <LCD_Init+0x3e>
 8000704:	9b01      	ldr	r3, [sp, #4]
 8000706:	3301      	adds	r3, #1
 8000708:	e7f7      	b.n	80006fa <LCD_Init+0x2e>
 800070a:	b003      	add	sp, #12
 800070c:	f85d fb04 	ldr.w	pc, [sp], #4
 8000710:	1fffc9b0 	.word	0x1fffc9b0
 8000714:	000493df 	.word	0x000493df

08000718 <LCD_Send_String>:
 8000718:	b513      	push	{r0, r1, r4, lr}
 800071a:	1e44      	subs	r4, r0, #1
 800071c:	f814 0f01 	ldrb.w	r0, [r4, #1]!
 8000720:	b158      	cbz	r0, 800073a <LCD_Send_String+0x22>
 8000722:	f7ff ffa1 	bl	8000668 <LCD_Send_Data>
 8000726:	2300      	movs	r3, #0
 8000728:	9301      	str	r3, [sp, #4]
 800072a:	9a01      	ldr	r2, [sp, #4]
 800072c:	f241 3387 	movw	r3, #4999	; 0x1387
 8000730:	429a      	cmp	r2, r3
 8000732:	d8f3      	bhi.n	800071c <LCD_Send_String+0x4>
 8000734:	9b01      	ldr	r3, [sp, #4]
 8000736:	3301      	adds	r3, #1
 8000738:	e7f6      	b.n	8000728 <LCD_Send_String+0x10>
 800073a:	b002      	add	sp, #8
 800073c:	bd10      	pop	{r4, pc}
	...

08000740 <LCD_ShowTemperatureHumidity>:
 8000740:	4b1e      	ldr	r3, [pc, #120]	; (80007bc <LCD_ShowTemperatureHumidity+0x7c>)
 8000742:	ed9f 7a1f 	vldr	s14, [pc, #124]	; 80007c0 <LCD_ShowTemperatureHumidity+0x80>
 8000746:	edd3 7a00 	vldr	s15, [r3]
 800074a:	ee67 7a87 	vmul.f32	s15, s15, s14
 800074e:	b570      	push	{r4, r5, r6, lr}
 8000750:	eefd 7ae7 	vcvt.s32.f32	s15, s15
 8000754:	b086      	sub	sp, #24
 8000756:	ee17 4a90 	vmov	r4, s15
 800075a:	edd3 7a01 	vldr	s15, [r3, #4]
 800075e:	ee67 7a87 	vmul.f32	s15, s15, s14
 8000762:	2080      	movs	r0, #128	; 0x80
 8000764:	eefd 7ae7 	vcvt.s32.f32	s15, s15
 8000768:	2564      	movs	r5, #100	; 0x64
 800076a:	ee17 6a90 	vmov	r6, s15
 800076e:	f7ff ff4d 	bl	800060c <LCD_Send_Cmd>
 8000772:	2080      	movs	r0, #128	; 0x80
 8000774:	f7ff ff4a 	bl	800060c <LCD_Send_Cmd>
 8000778:	fb94 f2f5 	sdiv	r2, r4, r5
 800077c:	fb05 4312 	mls	r3, r5, r2, r4
 8000780:	2b00      	cmp	r3, #0
 8000782:	bfb8      	it	lt
 8000784:	425b      	neglt	r3, r3
 8000786:	490f      	ldr	r1, [pc, #60]	; (80007c4 <LCD_ShowTemperatureHumidity+0x84>)
 8000788:	a801      	add	r0, sp, #4
 800078a:	f002 fabd 	bl	8002d08 <siprintf>
 800078e:	a801      	add	r0, sp, #4
 8000790:	f7ff ffc2 	bl	8000718 <LCD_Send_String>
 8000794:	20c0      	movs	r0, #192	; 0xc0
 8000796:	f7ff ff39 	bl	800060c <LCD_Send_Cmd>
 800079a:	fb96 f2f5 	sdiv	r2, r6, r5
 800079e:	fb05 6312 	mls	r3, r5, r2, r6
 80007a2:	2b00      	cmp	r3, #0
 80007a4:	4908      	ldr	r1, [pc, #32]	; (80007c8 <LCD_ShowTemperatureHumidity+0x88>)
 80007a6:	bfb8      	it	lt
 80007a8:	425b      	neglt	r3, r3
 80007aa:	a801      	add	r0, sp, #4
 80007ac:	f002 faac 	bl	8002d08 <siprintf>
 80007b0:	a801      	add	r0, sp, #4
 80007b2:	f7ff ffb1 	bl	8000718 <LCD_Send_String>
 80007b6:	b006      	add	sp, #24
 80007b8:	bd70      	pop	{r4, r5, r6, pc}
 80007ba:	bf00      	nop
 80007bc:	1fffc998 	.word	0x1fffc998
 80007c0:	42c80000 	.word	0x42c80000
 80007c4:	0800357a 	.word	0x0800357a
 80007c8:	08003588 	.word	0x08003588

080007cc <LCD_ShowCAN>:
 80007cc:	b57f      	push	{r0, r1, r2, r3, r4, r5, r6, lr}
 80007ce:	2080      	movs	r0, #128	; 0x80
 80007d0:	f7ff ff1c 	bl	800060c <LCD_Send_Cmd>
 80007d4:	4b10      	ldr	r3, [pc, #64]	; (8000818 <LCD_ShowCAN+0x4c>)
 80007d6:	4911      	ldr	r1, [pc, #68]	; (800081c <LCD_ShowCAN+0x50>)
 80007d8:	881a      	ldrh	r2, [r3, #0]
 80007da:	a801      	add	r0, sp, #4
 80007dc:	b292      	uxth	r2, r2
 80007de:	f002 fa93 	bl	8002d08 <siprintf>
 80007e2:	a801      	add	r0, sp, #4
 80007e4:	f7ff ff98 	bl	8000718 <LCD_Send_String>
 80007e8:	20c0      	movs	r0, #192	; 0xc0
 80007ea:	f7ff ff0f 	bl	800060c <LCD_Send_Cmd>
 80007ee:	4b0c      	ldr	r3, [pc, #48]	; (8000820 <LCD_ShowCAN+0x54>)
 80007f0:	781b      	ldrb	r3, [r3, #0]
 80007f2:	b10b      	cbz	r3, 80007f8 <LCD_ShowCAN+0x2c>
 80007f4:	480b      	ldr	r0, [pc, #44]	; (8000824 <LCD_ShowCAN+0x58>)
 80007f6:	e009      	b.n	800080c <LCD_ShowCAN+0x40>
 80007f8:	2080      	movs	r0, #128	; 0x80
 80007fa:	f7ff ff07 	bl	800060c <LCD_Send_Cmd>
 80007fe:	480a      	ldr	r0, [pc, #40]	; (8000828 <LCD_ShowCAN+0x5c>)
 8000800:	f7ff ff8a 	bl	8000718 <LCD_Send_String>
 8000804:	20c0      	movs	r0, #192	; 0xc0
 8000806:	f7ff ff01 	bl	800060c <LCD_Send_Cmd>
 800080a:	4808      	ldr	r0, [pc, #32]	; (800082c <LCD_ShowCAN+0x60>)
 800080c:	f7ff ff84 	bl	8000718 <LCD_Send_String>
 8000810:	b007      	add	sp, #28
 8000812:	f85d fb04 	ldr.w	pc, [sp], #4
 8000816:	bf00      	nop
 8000818:	1fffc9a6 	.word	0x1fffc9a6
 800081c:	08003597 	.word	0x08003597
 8000820:	1fffc9a5 	.word	0x1fffc9a5
 8000824:	0800359f 	.word	0x0800359f
 8000828:	080035a6 	.word	0x080035a6
 800082c:	080035ad 	.word	0x080035ad

08000830 <LCD_Task>:
 8000830:	4a0b      	ldr	r2, [pc, #44]	; (8000860 <LCD_Task+0x30>)
 8000832:	490c      	ldr	r1, [pc, #48]	; (8000864 <LCD_Task+0x34>)
 8000834:	6813      	ldr	r3, [r2, #0]
 8000836:	3301      	adds	r3, #1
 8000838:	428b      	cmp	r3, r1
 800083a:	d801      	bhi.n	8000840 <LCD_Task+0x10>
 800083c:	6013      	str	r3, [r2, #0]
 800083e:	4770      	bx	lr
 8000840:	2300      	movs	r3, #0
 8000842:	6013      	str	r3, [r2, #0]
 8000844:	4b08      	ldr	r3, [pc, #32]	; (8000868 <LCD_Task+0x38>)
 8000846:	7a1b      	ldrb	r3, [r3, #8]
 8000848:	b14b      	cbz	r3, 800085e <LCD_Task+0x2e>
 800084a:	4b08      	ldr	r3, [pc, #32]	; (800086c <LCD_Task+0x3c>)
 800084c:	781b      	ldrb	r3, [r3, #0]
 800084e:	b113      	cbz	r3, 8000856 <LCD_Task+0x26>
 8000850:	2b01      	cmp	r3, #1
 8000852:	d002      	beq.n	800085a <LCD_Task+0x2a>
 8000854:	4770      	bx	lr
 8000856:	f7ff bf73 	b.w	8000740 <LCD_ShowTemperatureHumidity>
 800085a:	f7ff bfb7 	b.w	80007cc <LCD_ShowCAN>
 800085e:	4770      	bx	lr
 8000860:	1fffc9ac 	.word	0x1fffc9ac
 8000864:	0007a11f 	.word	0x0007a11f
 8000868:	1fffc998 	.word	0x1fffc998
 800086c:	1fffc9b0 	.word	0x1fffc9b0

08000870 <LCD_SetPage>:
 8000870:	4b01      	ldr	r3, [pc, #4]	; (8000878 <LCD_SetPage+0x8>)
 8000872:	7018      	strb	r0, [r3, #0]
 8000874:	4770      	bx	lr
 8000876:	bf00      	nop
 8000878:	1fffc9b0 	.word	0x1fffc9b0

0800087c <LCD_ShowMessage>:
 800087c:	b510      	push	{r4, lr}
 800087e:	4604      	mov	r4, r0
 8000880:	f7ff ff20 	bl	80006c4 <LCD_Clear>
 8000884:	2080      	movs	r0, #128	; 0x80
 8000886:	f7ff fec1 	bl	800060c <LCD_Send_Cmd>
 800088a:	4620      	mov	r0, r4
 800088c:	e8bd 4010 	ldmia.w	sp!, {r4, lr}
 8000890:	f7ff bf42 	b.w	8000718 <LCD_Send_String>

08000894 <LED_Init>:
 8000894:	4b04      	ldr	r3, [pc, #16]	; (80008a8 <LED_Init+0x14>)
 8000896:	2201      	movs	r2, #1
 8000898:	701a      	strb	r2, [r3, #0]
 800089a:	f44f 72fa 	mov.w	r2, #500	; 0x1f4
 800089e:	605a      	str	r2, [r3, #4]
 80008a0:	2200      	movs	r2, #0
 80008a2:	609a      	str	r2, [r3, #8]
 80008a4:	4770      	bx	lr
 80008a6:	bf00      	nop
 80008a8:	1fffc804 	.word	0x1fffc804

080008ac <LED_TimerTask>:
 80008ac:	4b09      	ldr	r3, [pc, #36]	; (80008d4 <LED_TimerTask+0x28>)
 80008ae:	781a      	ldrb	r2, [r3, #0]
 80008b0:	b172      	cbz	r2, 80008d0 <LED_TimerTask+0x24>
 80008b2:	689a      	ldr	r2, [r3, #8]
 80008b4:	6859      	ldr	r1, [r3, #4]
 80008b6:	3264      	adds	r2, #100	; 0x64
 80008b8:	428a      	cmp	r2, r1
 80008ba:	609a      	str	r2, [r3, #8]
 80008bc:	d308      	bcc.n	80008d0 <LED_TimerTask+0x24>
 80008be:	4a06      	ldr	r2, [pc, #24]	; (80008d8 <LED_TimerTask+0x2c>)
 80008c0:	7c10      	ldrb	r0, [r2, #16]
 80008c2:	6811      	ldr	r1, [r2, #0]
 80008c4:	f04f 1201 	mov.w	r2, #65537	; 0x10001
 80008c8:	4082      	lsls	r2, r0
 80008ca:	604a      	str	r2, [r1, #4]
 80008cc:	2200      	movs	r2, #0
 80008ce:	609a      	str	r2, [r3, #8]
 80008d0:	4770      	bx	lr
 80008d2:	bf00      	nop
 80008d4:	1fffc804 	.word	0x1fffc804
 80008d8:	08003864 	.word	0x08003864

080008dc <LED_ButtonTask>:
 80008dc:	4a06      	ldr	r2, [pc, #24]	; (80008f8 <LED_ButtonTask+0x1c>)
 80008de:	7813      	ldrb	r3, [r2, #0]
 80008e0:	fab3 f383 	clz	r3, r3
 80008e4:	095b      	lsrs	r3, r3, #5
 80008e6:	7013      	strb	r3, [r2, #0]
 80008e8:	b92b      	cbnz	r3, 80008f6 <LED_ButtonTask+0x1a>
 80008ea:	4b04      	ldr	r3, [pc, #16]	; (80008fc <LED_ButtonTask+0x20>)
 80008ec:	7c19      	ldrb	r1, [r3, #16]
 80008ee:	681a      	ldr	r2, [r3, #0]
 80008f0:	2301      	movs	r3, #1
 80008f2:	408b      	lsls	r3, r1
 80008f4:	6053      	str	r3, [r2, #4]
 80008f6:	4770      	bx	lr
 80008f8:	1fffc804 	.word	0x1fffc804
 80008fc:	08003864 	.word	0x08003864

08000900 <LED_SetSpeed>:
 8000900:	4b01      	ldr	r3, [pc, #4]	; (8000908 <LED_SetSpeed+0x8>)
 8000902:	6058      	str	r0, [r3, #4]
 8000904:	4770      	bx	lr
 8000906:	bf00      	nop
 8000908:	1fffc804 	.word	0x1fffc804

0800090c <CCU41_1_IRQHandler>:
 800090c:	b508      	push	{r3, lr}
 800090e:	f7ff ffcd 	bl	80008ac <LED_TimerTask>
 8000912:	4a07      	ldr	r2, [pc, #28]	; (8000930 <CCU41_1_IRQHandler+0x24>)
 8000914:	7813      	ldrb	r3, [r2, #0]
 8000916:	3301      	adds	r3, #1
 8000918:	b2db      	uxtb	r3, r3
 800091a:	2b04      	cmp	r3, #4
 800091c:	d801      	bhi.n	8000922 <CCU41_1_IRQHandler+0x16>
 800091e:	7013      	strb	r3, [r2, #0]
 8000920:	bd08      	pop	{r3, pc}
 8000922:	2300      	movs	r3, #0
 8000924:	7013      	strb	r3, [r2, #0]
 8000926:	e8bd 4008 	ldmia.w	sp!, {r3, lr}
 800092a:	f7ff bdd3 	b.w	80004d4 <APP_CAN_RequestTx>
 800092e:	bf00      	nop
 8000930:	1fffc9b1 	.word	0x1fffc9b1

08000934 <ERU1_0_IRQHandler>:
 8000934:	f7ff bfd2 	b.w	80008dc <LED_ButtonTask>

08000938 <main>:
 8000938:	b508      	push	{r3, lr}
 800093a:	f002 f93b 	bl	8002bb4 <DAVE_Init>
 800093e:	b100      	cbz	r0, 8000942 <main+0xa>
 8000940:	e7fe      	b.n	8000940 <main+0x8>
 8000942:	f7ff fd6f 	bl	8000424 <APP_Init>
 8000946:	f7ff fd7a 	bl	800043e <APP_Run>
 800094a:	e7fc      	b.n	8000946 <main+0xe>

0800094c <APP_UART_SendString>:
 800094c:	b510      	push	{r4, lr}
 800094e:	4604      	mov	r4, r0
 8000950:	f002 f9fe 	bl	8002d50 <strlen>
 8000954:	4621      	mov	r1, r4
 8000956:	4602      	mov	r2, r0
 8000958:	4806      	ldr	r0, [pc, #24]	; (8000974 <APP_UART_SendString+0x28>)
 800095a:	f001 fa70 	bl	8001e3e <UART_Transmit>
 800095e:	4620      	mov	r0, r4
 8000960:	f002 f9f6 	bl	8002d50 <strlen>
 8000964:	4621      	mov	r1, r4
 8000966:	4602      	mov	r2, r0
 8000968:	e8bd 4010 	ldmia.w	sp!, {r4, lr}
 800096c:	4802      	ldr	r0, [pc, #8]	; (8000978 <APP_UART_SendString+0x2c>)
 800096e:	f001 ba66 	b.w	8001e3e <UART_Transmit>
 8000972:	bf00      	nop
 8000974:	1fffc810 	.word	0x1fffc810
 8000978:	1fffc81c 	.word	0x1fffc81c

0800097c <APP_UART_Init>:
 800097c:	4801      	ldr	r0, [pc, #4]	; (8000984 <APP_UART_Init+0x8>)
 800097e:	f7ff bfe5 	b.w	800094c <APP_UART_SendString>
 8000982:	bf00      	nop
 8000984:	080035b8 	.word	0x080035b8

08000988 <APP_UART_ProcessCommand>:
 8000988:	b530      	push	{r4, r5, lr}
 800098a:	282b      	cmp	r0, #43	; 0x2b
 800098c:	b087      	sub	sp, #28
 800098e:	d103      	bne.n	8000998 <APP_UART_ProcessCommand+0x10>
 8000990:	4c6c      	ldr	r4, [pc, #432]	; (8000b44 <APP_UART_ProcessCommand+0x1bc>)
 8000992:	6860      	ldr	r0, [r4, #4]
 8000994:	3064      	adds	r0, #100	; 0x64
 8000996:	e007      	b.n	80009a8 <APP_UART_ProcessCommand+0x20>
 8000998:	282d      	cmp	r0, #45	; 0x2d
 800099a:	d10c      	bne.n	80009b6 <APP_UART_ProcessCommand+0x2e>
 800099c:	4b69      	ldr	r3, [pc, #420]	; (8000b44 <APP_UART_ProcessCommand+0x1bc>)
 800099e:	6858      	ldr	r0, [r3, #4]
 80009a0:	2864      	cmp	r0, #100	; 0x64
 80009a2:	461c      	mov	r4, r3
 80009a4:	d902      	bls.n	80009ac <APP_UART_ProcessCommand+0x24>
 80009a6:	3864      	subs	r0, #100	; 0x64
 80009a8:	f7ff ffaa 	bl	8000900 <LED_SetSpeed>
 80009ac:	4866      	ldr	r0, [pc, #408]	; (8000b48 <APP_UART_ProcessCommand+0x1c0>)
 80009ae:	4a67      	ldr	r2, [pc, #412]	; (8000b4c <APP_UART_ProcessCommand+0x1c4>)
 80009b0:	6863      	ldr	r3, [r4, #4]
 80009b2:	2180      	movs	r1, #128	; 0x80
 80009b4:	e013      	b.n	80009de <APP_UART_ProcessCommand+0x56>
 80009b6:	286c      	cmp	r0, #108	; 0x6c
 80009b8:	d10a      	bne.n	80009d0 <APP_UART_ProcessCommand+0x48>
 80009ba:	f7ff ff8f 	bl	80008dc <LED_ButtonTask>
 80009be:	4b61      	ldr	r3, [pc, #388]	; (8000b44 <APP_UART_ProcessCommand+0x1bc>)
 80009c0:	781b      	ldrb	r3, [r3, #0]
 80009c2:	b10b      	cbz	r3, 80009c8 <APP_UART_ProcessCommand+0x40>
 80009c4:	4862      	ldr	r0, [pc, #392]	; (8000b50 <APP_UART_ProcessCommand+0x1c8>)
 80009c6:	e000      	b.n	80009ca <APP_UART_ProcessCommand+0x42>
 80009c8:	4862      	ldr	r0, [pc, #392]	; (8000b54 <APP_UART_ProcessCommand+0x1cc>)
 80009ca:	f7ff ffbf 	bl	800094c <APP_UART_SendString>
 80009ce:	e0b2      	b.n	8000b36 <APP_UART_ProcessCommand+0x1ae>
 80009d0:	2862      	cmp	r0, #98	; 0x62
 80009d2:	d108      	bne.n	80009e6 <APP_UART_ProcessCommand+0x5e>
 80009d4:	4b5b      	ldr	r3, [pc, #364]	; (8000b44 <APP_UART_ProcessCommand+0x1bc>)
 80009d6:	485c      	ldr	r0, [pc, #368]	; (8000b48 <APP_UART_ProcessCommand+0x1c0>)
 80009d8:	4a5c      	ldr	r2, [pc, #368]	; (8000b4c <APP_UART_ProcessCommand+0x1c4>)
 80009da:	685b      	ldr	r3, [r3, #4]
 80009dc:	2180      	movs	r1, #128	; 0x80
 80009de:	f002 f961 	bl	8002ca4 <sniprintf>
 80009e2:	4859      	ldr	r0, [pc, #356]	; (8000b48 <APP_UART_ProcessCommand+0x1c0>)
 80009e4:	e7f1      	b.n	80009ca <APP_UART_ProcessCommand+0x42>
 80009e6:	2861      	cmp	r0, #97	; 0x61
 80009e8:	d108      	bne.n	80009fc <APP_UART_ProcessCommand+0x74>
 80009ea:	f7ff fc5f 	bl	80002ac <ADC_GetValue>
 80009ee:	2180      	movs	r1, #128	; 0x80
 80009f0:	4603      	mov	r3, r0
 80009f2:	4a59      	ldr	r2, [pc, #356]	; (8000b58 <APP_UART_ProcessCommand+0x1d0>)
 80009f4:	4854      	ldr	r0, [pc, #336]	; (8000b48 <APP_UART_ProcessCommand+0x1c0>)
 80009f6:	f002 f955 	bl	8002ca4 <sniprintf>
 80009fa:	e085      	b.n	8000b08 <APP_UART_ProcessCommand+0x180>
 80009fc:	2874      	cmp	r0, #116	; 0x74
 80009fe:	d11c      	bne.n	8000a3a <APP_UART_ProcessCommand+0xb2>
 8000a00:	f7ff fc92 	bl	8000328 <APP_AHT10_Read>
 8000a04:	b1b8      	cbz	r0, 8000a36 <APP_UART_ProcessCommand+0xae>
 8000a06:	4b55      	ldr	r3, [pc, #340]	; (8000b5c <APP_UART_ProcessCommand+0x1d4>)
 8000a08:	ed9f 7a55 	vldr	s14, [pc, #340]	; 8000b60 <APP_UART_ProcessCommand+0x1d8>
 8000a0c:	edd3 7a00 	vldr	s15, [r3]
 8000a10:	484d      	ldr	r0, [pc, #308]	; (8000b48 <APP_UART_ProcessCommand+0x1c0>)
 8000a12:	ee67 7a87 	vmul.f32	s15, s15, s14
 8000a16:	2264      	movs	r2, #100	; 0x64
 8000a18:	eefd 7ae7 	vcvt.s32.f32	s15, s15
 8000a1c:	ee17 1a90 	vmov	r1, s15
 8000a20:	fb91 f3f2 	sdiv	r3, r1, r2
 8000a24:	fb02 1213 	mls	r2, r2, r3, r1
 8000a28:	2a00      	cmp	r2, #0
 8000a2a:	bfb8      	it	lt
 8000a2c:	4252      	neglt	r2, r2
 8000a2e:	9200      	str	r2, [sp, #0]
 8000a30:	2180      	movs	r1, #128	; 0x80
 8000a32:	4a4c      	ldr	r2, [pc, #304]	; (8000b64 <APP_UART_ProcessCommand+0x1dc>)
 8000a34:	e066      	b.n	8000b04 <APP_UART_ProcessCommand+0x17c>
 8000a36:	484c      	ldr	r0, [pc, #304]	; (8000b68 <APP_UART_ProcessCommand+0x1e0>)
 8000a38:	e07e      	b.n	8000b38 <APP_UART_ProcessCommand+0x1b0>
 8000a3a:	2868      	cmp	r0, #104	; 0x68
 8000a3c:	d11b      	bne.n	8000a76 <APP_UART_ProcessCommand+0xee>
 8000a3e:	f7ff fc73 	bl	8000328 <APP_AHT10_Read>
 8000a42:	2800      	cmp	r0, #0
 8000a44:	d0f7      	beq.n	8000a36 <APP_UART_ProcessCommand+0xae>
 8000a46:	4b45      	ldr	r3, [pc, #276]	; (8000b5c <APP_UART_ProcessCommand+0x1d4>)
 8000a48:	ed9f 7a45 	vldr	s14, [pc, #276]	; 8000b60 <APP_UART_ProcessCommand+0x1d8>
 8000a4c:	edd3 7a01 	vldr	s15, [r3, #4]
 8000a50:	483d      	ldr	r0, [pc, #244]	; (8000b48 <APP_UART_ProcessCommand+0x1c0>)
 8000a52:	ee67 7a87 	vmul.f32	s15, s15, s14
 8000a56:	2264      	movs	r2, #100	; 0x64
 8000a58:	eefd 7ae7 	vcvt.s32.f32	s15, s15
 8000a5c:	ee17 1a90 	vmov	r1, s15
 8000a60:	fb91 f3f2 	sdiv	r3, r1, r2
 8000a64:	fb02 1213 	mls	r2, r2, r3, r1
 8000a68:	2a00      	cmp	r2, #0
 8000a6a:	bfb8      	it	lt
 8000a6c:	4252      	neglt	r2, r2
 8000a6e:	9200      	str	r2, [sp, #0]
 8000a70:	2180      	movs	r1, #128	; 0x80
 8000a72:	4a3e      	ldr	r2, [pc, #248]	; (8000b6c <APP_UART_ProcessCommand+0x1e4>)
 8000a74:	e046      	b.n	8000b04 <APP_UART_ProcessCommand+0x17c>
 8000a76:	2863      	cmp	r0, #99	; 0x63
 8000a78:	d131      	bne.n	8000ade <APP_UART_ProcessCommand+0x156>
 8000a7a:	f7ff fc55 	bl	8000328 <APP_AHT10_Read>
 8000a7e:	4b37      	ldr	r3, [pc, #220]	; (8000b5c <APP_UART_ProcessCommand+0x1d4>)
 8000a80:	eddf 6a37 	vldr	s13, [pc, #220]	; 8000b60 <APP_UART_ProcessCommand+0x1d8>
 8000a84:	ed93 7a00 	vldr	s14, [r3]
 8000a88:	ee27 7a26 	vmul.f32	s14, s14, s13
 8000a8c:	eefd 7ac7 	vcvt.s32.f32	s15, s14
 8000a90:	ee17 5a90 	vmov	r5, s15
 8000a94:	edd3 7a01 	vldr	s15, [r3, #4]
 8000a98:	ee67 7aa6 	vmul.f32	s15, s15, s13
 8000a9c:	eefd 7ae7 	vcvt.s32.f32	s15, s15
 8000aa0:	ee17 4a90 	vmov	r4, s15
 8000aa4:	f7ff fd1c 	bl	80004e0 <APP_CAN_GetTxID>
 8000aa8:	4603      	mov	r3, r0
 8000aaa:	9000      	str	r0, [sp, #0]
 8000aac:	2064      	movs	r0, #100	; 0x64
 8000aae:	fb95 f1f0 	sdiv	r1, r5, r0
 8000ab2:	9101      	str	r1, [sp, #4]
 8000ab4:	fb00 5111 	mls	r1, r0, r1, r5
 8000ab8:	fb94 f2f0 	sdiv	r2, r4, r0
 8000abc:	2900      	cmp	r1, #0
 8000abe:	9203      	str	r2, [sp, #12]
 8000ac0:	fb00 4212 	mls	r2, r0, r2, r4
 8000ac4:	bfb8      	it	lt
 8000ac6:	4249      	neglt	r1, r1
 8000ac8:	2a00      	cmp	r2, #0
 8000aca:	bfb8      	it	lt
 8000acc:	4252      	neglt	r2, r2
 8000ace:	9102      	str	r1, [sp, #8]
 8000ad0:	9204      	str	r2, [sp, #16]
 8000ad2:	2180      	movs	r1, #128	; 0x80
 8000ad4:	4a26      	ldr	r2, [pc, #152]	; (8000b70 <APP_UART_ProcessCommand+0x1e8>)
 8000ad6:	481c      	ldr	r0, [pc, #112]	; (8000b48 <APP_UART_ProcessCommand+0x1c0>)
 8000ad8:	f002 f8e4 	bl	8002ca4 <sniprintf>
 8000adc:	e014      	b.n	8000b08 <APP_UART_ProcessCommand+0x180>
 8000ade:	286e      	cmp	r0, #110	; 0x6e
 8000ae0:	d102      	bne.n	8000ae8 <APP_UART_ProcessCommand+0x160>
 8000ae2:	f7ff fd07 	bl	80004f4 <APP_CAN_NextTxID>
 8000ae6:	e003      	b.n	8000af0 <APP_UART_ProcessCommand+0x168>
 8000ae8:	2870      	cmp	r0, #112	; 0x70
 8000aea:	d10f      	bne.n	8000b0c <APP_UART_ProcessCommand+0x184>
 8000aec:	f7ff fd0e 	bl	800050c <APP_CAN_PrevTxID>
 8000af0:	f7ff fcf6 	bl	80004e0 <APP_CAN_GetTxID>
 8000af4:	4604      	mov	r4, r0
 8000af6:	f7ff fcf3 	bl	80004e0 <APP_CAN_GetTxID>
 8000afa:	4a1e      	ldr	r2, [pc, #120]	; (8000b74 <APP_UART_ProcessCommand+0x1ec>)
 8000afc:	9000      	str	r0, [sp, #0]
 8000afe:	4812      	ldr	r0, [pc, #72]	; (8000b48 <APP_UART_ProcessCommand+0x1c0>)
 8000b00:	2180      	movs	r1, #128	; 0x80
 8000b02:	4623      	mov	r3, r4
 8000b04:	f002 f8ce 	bl	8002ca4 <sniprintf>
 8000b08:	480f      	ldr	r0, [pc, #60]	; (8000b48 <APP_UART_ProcessCommand+0x1c0>)
 8000b0a:	e015      	b.n	8000b38 <APP_UART_ProcessCommand+0x1b0>
 8000b0c:	2831      	cmp	r0, #49	; 0x31
 8000b0e:	d104      	bne.n	8000b1a <APP_UART_ProcessCommand+0x192>
 8000b10:	2000      	movs	r0, #0
 8000b12:	f7ff fead 	bl	8000870 <LCD_SetPage>
 8000b16:	4818      	ldr	r0, [pc, #96]	; (8000b78 <APP_UART_ProcessCommand+0x1f0>)
 8000b18:	e00e      	b.n	8000b38 <APP_UART_ProcessCommand+0x1b0>
 8000b1a:	2832      	cmp	r0, #50	; 0x32
 8000b1c:	d104      	bne.n	8000b28 <APP_UART_ProcessCommand+0x1a0>
 8000b1e:	2001      	movs	r0, #1
 8000b20:	f7ff fea6 	bl	8000870 <LCD_SetPage>
 8000b24:	4815      	ldr	r0, [pc, #84]	; (8000b7c <APP_UART_ProcessCommand+0x1f4>)
 8000b26:	e007      	b.n	8000b38 <APP_UART_ProcessCommand+0x1b0>
 8000b28:	2833      	cmp	r0, #51	; 0x33
 8000b2a:	d104      	bne.n	8000b36 <APP_UART_ProcessCommand+0x1ae>
 8000b2c:	2002      	movs	r0, #2
 8000b2e:	f7ff fe9f 	bl	8000870 <LCD_SetPage>
 8000b32:	4813      	ldr	r0, [pc, #76]	; (8000b80 <APP_UART_ProcessCommand+0x1f8>)
 8000b34:	e000      	b.n	8000b38 <APP_UART_ProcessCommand+0x1b0>
 8000b36:	4813      	ldr	r0, [pc, #76]	; (8000b84 <APP_UART_ProcessCommand+0x1fc>)
 8000b38:	b007      	add	sp, #28
 8000b3a:	e8bd 4030 	ldmia.w	sp!, {r4, r5, lr}
 8000b3e:	f7ff bf05 	b.w	800094c <APP_UART_SendString>
 8000b42:	bf00      	nop
 8000b44:	1fffc804 	.word	0x1fffc804
 8000b48:	1fffc9b3 	.word	0x1fffc9b3
 8000b4c:	080035e6 	.word	0x080035e6
 8000b50:	080035f7 	.word	0x080035f7
 8000b54:	08003608 	.word	0x08003608
 8000b58:	08003613 	.word	0x08003613
 8000b5c:	1fffc998 	.word	0x1fffc998
 8000b60:	42c80000 	.word	0x42c80000
 8000b64:	0800361e 	.word	0x0800361e
 8000b68:	08003631 	.word	0x08003631
 8000b6c:	08003664 	.word	0x08003664
 8000b70:	0800363e 	.word	0x0800363e
 8000b74:	08003677 	.word	0x08003677
 8000b78:	08003696 	.word	0x08003696
 8000b7c:	080036ab 	.word	0x080036ab
 8000b80:	0800353e 	.word	0x0800353e
 8000b84:	080036b8 	.word	0x080036b8

08000b88 <APP_UART_Task>:
 8000b88:	b538      	push	{r3, r4, r5, lr}
 8000b8a:	4c07      	ldr	r4, [pc, #28]	; (8000ba8 <APP_UART_Task+0x20>)
 8000b8c:	4807      	ldr	r0, [pc, #28]	; (8000bac <APP_UART_Task+0x24>)
 8000b8e:	4621      	mov	r1, r4
 8000b90:	2201      	movs	r2, #1
 8000b92:	f001 f98e 	bl	8001eb2 <UART_Receive>
 8000b96:	4605      	mov	r5, r0
 8000b98:	b920      	cbnz	r0, 8000ba4 <APP_UART_Task+0x1c>
 8000b9a:	7820      	ldrb	r0, [r4, #0]
 8000b9c:	b110      	cbz	r0, 8000ba4 <APP_UART_Task+0x1c>
 8000b9e:	f7ff fef3 	bl	8000988 <APP_UART_ProcessCommand>
 8000ba2:	7025      	strb	r5, [r4, #0]
 8000ba4:	bd38      	pop	{r3, r4, r5, pc}
 8000ba6:	bf00      	nop
 8000ba8:	1fffc9b2 	.word	0x1fffc9b2
 8000bac:	1fffc810 	.word	0x1fffc810

08000bb0 <SystemCoreClockUpdate>:
 8000bb0:	4b1d      	ldr	r3, [pc, #116]	; (8000c28 <SystemCoreClockUpdate+0x78>)
 8000bb2:	68db      	ldr	r3, [r3, #12]
 8000bb4:	03d9      	lsls	r1, r3, #15
 8000bb6:	b510      	push	{r4, lr}
 8000bb8:	d525      	bpl.n	8000c06 <SystemCoreClockUpdate+0x56>
 8000bba:	4b1c      	ldr	r3, [pc, #112]	; (8000c2c <SystemCoreClockUpdate+0x7c>)
 8000bbc:	68da      	ldr	r2, [r3, #12]
 8000bbe:	f012 0f01 	tst.w	r2, #1
 8000bc2:	461c      	mov	r4, r3
 8000bc4:	d102      	bne.n	8000bcc <SystemCoreClockUpdate+0x1c>
 8000bc6:	f001 fe69 	bl	800289c <OSCHP_GetFrequency>
 8000bca:	e000      	b.n	8000bce <SystemCoreClockUpdate+0x1e>
 8000bcc:	4818      	ldr	r0, [pc, #96]	; (8000c30 <SystemCoreClockUpdate+0x80>)
 8000bce:	6822      	ldr	r2, [r4, #0]
 8000bd0:	4b16      	ldr	r3, [pc, #88]	; (8000c2c <SystemCoreClockUpdate+0x7c>)
 8000bd2:	0752      	lsls	r2, r2, #29
 8000bd4:	d510      	bpl.n	8000bf8 <SystemCoreClockUpdate+0x48>
 8000bd6:	689a      	ldr	r2, [r3, #8]
 8000bd8:	6899      	ldr	r1, [r3, #8]
 8000bda:	689b      	ldr	r3, [r3, #8]
 8000bdc:	f3c2 6203 	ubfx	r2, r2, #24, #4
 8000be0:	f3c3 4406 	ubfx	r4, r3, #16, #7
 8000be4:	1c53      	adds	r3, r2, #1
 8000be6:	fb04 3303 	mla	r3, r4, r3, r3
 8000bea:	fbb0 f0f3 	udiv	r0, r0, r3
 8000bee:	f3c1 2306 	ubfx	r3, r1, #8, #7
 8000bf2:	fb03 0000 	mla	r0, r3, r0, r0
 8000bf6:	e007      	b.n	8000c08 <SystemCoreClockUpdate+0x58>
 8000bf8:	689b      	ldr	r3, [r3, #8]
 8000bfa:	f003 037f 	and.w	r3, r3, #127	; 0x7f
 8000bfe:	3301      	adds	r3, #1
 8000c00:	fbb0 f0f3 	udiv	r0, r0, r3
 8000c04:	e000      	b.n	8000c08 <SystemCoreClockUpdate+0x58>
 8000c06:	480a      	ldr	r0, [pc, #40]	; (8000c30 <SystemCoreClockUpdate+0x80>)
 8000c08:	4a07      	ldr	r2, [pc, #28]	; (8000c28 <SystemCoreClockUpdate+0x78>)
 8000c0a:	68d3      	ldr	r3, [r2, #12]
 8000c0c:	b2db      	uxtb	r3, r3
 8000c0e:	3301      	adds	r3, #1
 8000c10:	fbb0 f0f3 	udiv	r0, r0, r3
 8000c14:	6913      	ldr	r3, [r2, #16]
 8000c16:	f003 0301 	and.w	r3, r3, #1
 8000c1a:	3301      	adds	r3, #1
 8000c1c:	fbb0 f0f3 	udiv	r0, r0, r3
 8000c20:	4b04      	ldr	r3, [pc, #16]	; (8000c34 <SystemCoreClockUpdate+0x84>)
 8000c22:	6018      	str	r0, [r3, #0]
 8000c24:	bd10      	pop	{r4, pc}
 8000c26:	bf00      	nop
 8000c28:	50004600 	.word	0x50004600
 8000c2c:	50004710 	.word	0x50004710
 8000c30:	016e3600 	.word	0x016e3600
 8000c34:	20005fc0 	.word	0x20005fc0

08000c38 <SystemInit>:
 8000c38:	b538      	push	{r3, r4, r5, lr}
 8000c3a:	4a0b      	ldr	r2, [pc, #44]	; (8000c68 <SystemInit+0x30>)
 8000c3c:	4d0b      	ldr	r5, [pc, #44]	; (8000c6c <SystemInit+0x34>)
 8000c3e:	f04f 5400 	mov.w	r4, #536870912	; 0x20000000
 8000c42:	4623      	mov	r3, r4
 8000c44:	cb03      	ldmia	r3!, {r0, r1}
 8000c46:	42ab      	cmp	r3, r5
 8000c48:	6010      	str	r0, [r2, #0]
 8000c4a:	6051      	str	r1, [r2, #4]
 8000c4c:	461c      	mov	r4, r3
 8000c4e:	f102 0208 	add.w	r2, r2, #8
 8000c52:	d1f6      	bne.n	8000c42 <SystemInit+0xa>
 8000c54:	4a06      	ldr	r2, [pc, #24]	; (8000c70 <SystemInit+0x38>)
 8000c56:	4b07      	ldr	r3, [pc, #28]	; (8000c74 <SystemInit+0x3c>)
 8000c58:	ca07      	ldmia	r2, {r0, r1, r2}
 8000c5a:	e883 0007 	stmia.w	r3, {r0, r1, r2}
 8000c5e:	f001 fddd 	bl	800281c <SystemCoreSetup>
 8000c62:	f001 fe1f 	bl	80028a4 <SystemCoreClockSetup>
 8000c66:	bd38      	pop	{r3, r4, r5, pc}
 8000c68:	20005fc4 	.word	0x20005fc4
 8000c6c:	20000010 	.word	0x20000010
 8000c70:	20000084 	.word	0x20000084
 8000c74:	20005fd4 	.word	0x20005fd4

08000c78 <XMC_ERU_Enable>:
 8000c78:	b508      	push	{r3, lr}
 8000c7a:	4b07      	ldr	r3, [pc, #28]	; (8000c98 <XMC_ERU_Enable+0x20>)
 8000c7c:	4298      	cmp	r0, r3
 8000c7e:	d109      	bne.n	8000c94 <XMC_ERU_Enable+0x1c>
 8000c80:	f44f 3080 	mov.w	r0, #65536	; 0x10000
 8000c84:	f000 f914 	bl	8000eb0 <XMC_SCU_CLOCK_UngatePeripheralClock>
 8000c88:	f44f 3080 	mov.w	r0, #65536	; 0x10000
 8000c8c:	e8bd 4008 	ldmia.w	sp!, {r3, lr}
 8000c90:	f000 b85a 	b.w	8000d48 <XMC_SCU_RESET_DeassertPeripheralReset>
 8000c94:	bd08      	pop	{r3, pc}
 8000c96:	bf00      	nop
 8000c98:	40044000 	.word	0x40044000

08000c9c <XMC_GPIO_Init>:
 8000c9c:	f001 03fc 	and.w	r3, r1, #252	; 0xfc
 8000ca0:	4403      	add	r3, r0
 8000ca2:	b5f0      	push	{r4, r5, r6, r7, lr}
 8000ca4:	f001 0403 	and.w	r4, r1, #3
 8000ca8:	691e      	ldr	r6, [r3, #16]
 8000caa:	00e4      	lsls	r4, r4, #3
 8000cac:	25f8      	movs	r5, #248	; 0xf8
 8000cae:	40a5      	lsls	r5, r4
 8000cb0:	ea26 0505 	bic.w	r5, r6, r5
 8000cb4:	611d      	str	r5, [r3, #16]
 8000cb6:	6f46      	ldr	r6, [r0, #116]	; 0x74
 8000cb8:	004f      	lsls	r7, r1, #1
 8000cba:	2503      	movs	r5, #3
 8000cbc:	40bd      	lsls	r5, r7
 8000cbe:	ea26 0505 	bic.w	r5, r6, r5
 8000cc2:	6745      	str	r5, [r0, #116]	; 0x74
 8000cc4:	4d14      	ldr	r5, [pc, #80]	; (8000d18 <XMC_GPIO_Init+0x7c>)
 8000cc6:	42a8      	cmp	r0, r5
 8000cc8:	d107      	bne.n	8000cda <XMC_GPIO_Init+0x3e>
 8000cca:	6e05      	ldr	r5, [r0, #96]	; 0x60
 8000ccc:	2601      	movs	r6, #1
 8000cce:	fa06 f101 	lsl.w	r1, r6, r1
 8000cd2:	ea25 0101 	bic.w	r1, r5, r1
 8000cd6:	6601      	str	r1, [r0, #96]	; 0x60
 8000cd8:	e018      	b.n	8000d0c <XMC_GPIO_Init+0x70>
 8000cda:	f992 5000 	ldrsb.w	r5, [r2]
 8000cde:	2d00      	cmp	r5, #0
 8000ce0:	da14      	bge.n	8000d0c <XMC_GPIO_Init+0x70>
 8000ce2:	6855      	ldr	r5, [r2, #4]
 8000ce4:	408d      	lsls	r5, r1
 8000ce6:	6045      	str	r5, [r0, #4]
 8000ce8:	08cd      	lsrs	r5, r1, #3
 8000cea:	eb00 0085 	add.w	r0, r0, r5, lsl #2
 8000cee:	f001 0107 	and.w	r1, r1, #7
 8000cf2:	6c06      	ldr	r6, [r0, #64]	; 0x40
 8000cf4:	0089      	lsls	r1, r1, #2
 8000cf6:	2507      	movs	r5, #7
 8000cf8:	408d      	lsls	r5, r1
 8000cfa:	ea26 0505 	bic.w	r5, r6, r5
 8000cfe:	6405      	str	r5, [r0, #64]	; 0x40
 8000d00:	7a16      	ldrb	r6, [r2, #8]
 8000d02:	6c05      	ldr	r5, [r0, #64]	; 0x40
 8000d04:	fa06 f101 	lsl.w	r1, r6, r1
 8000d08:	4329      	orrs	r1, r5
 8000d0a:	6401      	str	r1, [r0, #64]	; 0x40
 8000d0c:	7812      	ldrb	r2, [r2, #0]
 8000d0e:	6919      	ldr	r1, [r3, #16]
 8000d10:	40a2      	lsls	r2, r4
 8000d12:	430a      	orrs	r2, r1
 8000d14:	611a      	str	r2, [r3, #16]
 8000d16:	bdf0      	pop	{r4, r5, r6, r7, pc}
 8000d18:	48028e00 	.word	0x48028e00

08000d1c <XMC_SCU_lDelay>:
 8000d1c:	b510      	push	{r4, lr}
 8000d1e:	4604      	mov	r4, r0
 8000d20:	f7ff ff46 	bl	8000bb0 <SystemCoreClockUpdate>
 8000d24:	4b06      	ldr	r3, [pc, #24]	; (8000d40 <XMC_SCU_lDelay+0x24>)
 8000d26:	4807      	ldr	r0, [pc, #28]	; (8000d44 <XMC_SCU_lDelay+0x28>)
 8000d28:	681b      	ldr	r3, [r3, #0]
 8000d2a:	fbb3 f3f0 	udiv	r3, r3, r0
 8000d2e:	fb03 f004 	mul.w	r0, r3, r4
 8000d32:	2300      	movs	r3, #0
 8000d34:	4283      	cmp	r3, r0
 8000d36:	d002      	beq.n	8000d3e <XMC_SCU_lDelay+0x22>
 8000d38:	bf00      	nop
 8000d3a:	3301      	adds	r3, #1
 8000d3c:	e7fa      	b.n	8000d34 <XMC_SCU_lDelay+0x18>
 8000d3e:	bd10      	pop	{r4, pc}
 8000d40:	20005fc0 	.word	0x20005fc0
 8000d44:	000f4240 	.word	0x000f4240

08000d48 <XMC_SCU_RESET_DeassertPeripheralReset>:
 8000d48:	f020 4270 	bic.w	r2, r0, #4026531840	; 0xf0000000
 8000d4c:	230c      	movs	r3, #12
 8000d4e:	0f00      	lsrs	r0, r0, #28
 8000d50:	4358      	muls	r0, r3
 8000d52:	4b01      	ldr	r3, [pc, #4]	; (8000d58 <XMC_SCU_RESET_DeassertPeripheralReset+0x10>)
 8000d54:	50c2      	str	r2, [r0, r3]
 8000d56:	4770      	bx	lr
 8000d58:	50004414 	.word	0x50004414

08000d5c <XMC_SCU_RESET_IsPeripheralResetAsserted>:
 8000d5c:	0f02      	lsrs	r2, r0, #28
 8000d5e:	230c      	movs	r3, #12
 8000d60:	4353      	muls	r3, r2
 8000d62:	4a04      	ldr	r2, [pc, #16]	; (8000d74 <XMC_SCU_RESET_IsPeripheralResetAsserted+0x18>)
 8000d64:	589b      	ldr	r3, [r3, r2]
 8000d66:	f020 4070 	bic.w	r0, r0, #4026531840	; 0xf0000000
 8000d6a:	4218      	tst	r0, r3
 8000d6c:	bf14      	ite	ne
 8000d6e:	2001      	movne	r0, #1
 8000d70:	2000      	moveq	r0, #0
 8000d72:	4770      	bx	lr
 8000d74:	5000440c 	.word	0x5000440c

08000d78 <XMC_SCU_CLOCK_GetPeripheralClockFrequency>:
 8000d78:	4b03      	ldr	r3, [pc, #12]	; (8000d88 <XMC_SCU_CLOCK_GetPeripheralClockFrequency+0x10>)
 8000d7a:	4a04      	ldr	r2, [pc, #16]	; (8000d8c <XMC_SCU_CLOCK_GetPeripheralClockFrequency+0x14>)
 8000d7c:	695b      	ldr	r3, [r3, #20]
 8000d7e:	6810      	ldr	r0, [r2, #0]
 8000d80:	f003 0301 	and.w	r3, r3, #1
 8000d84:	40d8      	lsrs	r0, r3
 8000d86:	4770      	bx	lr
 8000d88:	50004600 	.word	0x50004600
 8000d8c:	20005fc0 	.word	0x20005fc0

08000d90 <XMC_SCU_CLOCK_SetSystemClockSource>:
 8000d90:	4a03      	ldr	r2, [pc, #12]	; (8000da0 <XMC_SCU_CLOCK_SetSystemClockSource+0x10>)
 8000d92:	68d3      	ldr	r3, [r2, #12]
 8000d94:	f423 3380 	bic.w	r3, r3, #65536	; 0x10000
 8000d98:	4318      	orrs	r0, r3
 8000d9a:	60d0      	str	r0, [r2, #12]
 8000d9c:	4770      	bx	lr
 8000d9e:	bf00      	nop
 8000da0:	50004600 	.word	0x50004600

08000da4 <XMC_SCU_CLOCK_SetUsbClockSource>:
 8000da4:	4a03      	ldr	r2, [pc, #12]	; (8000db4 <XMC_SCU_CLOCK_SetUsbClockSource+0x10>)
 8000da6:	6993      	ldr	r3, [r2, #24]
 8000da8:	f423 3380 	bic.w	r3, r3, #65536	; 0x10000
 8000dac:	4318      	orrs	r0, r3
 8000dae:	6190      	str	r0, [r2, #24]
 8000db0:	4770      	bx	lr
 8000db2:	bf00      	nop
 8000db4:	50004600 	.word	0x50004600

08000db8 <XMC_SCU_CLOCK_SetWdtClockSource>:
 8000db8:	4a03      	ldr	r2, [pc, #12]	; (8000dc8 <XMC_SCU_CLOCK_SetWdtClockSource+0x10>)
 8000dba:	6a53      	ldr	r3, [r2, #36]	; 0x24
 8000dbc:	f423 3340 	bic.w	r3, r3, #196608	; 0x30000
 8000dc0:	4318      	orrs	r0, r3
 8000dc2:	6250      	str	r0, [r2, #36]	; 0x24
 8000dc4:	4770      	bx	lr
 8000dc6:	bf00      	nop
 8000dc8:	50004600 	.word	0x50004600

08000dcc <XMC_SCU_CLOCK_SetSystemPllClockSource>:
 8000dcc:	4a06      	ldr	r2, [pc, #24]	; (8000de8 <XMC_SCU_CLOCK_SetSystemPllClockSource+0x1c>)
 8000dce:	68d3      	ldr	r3, [r2, #12]
 8000dd0:	b920      	cbnz	r0, 8000ddc <XMC_SCU_CLOCK_SetSystemPllClockSource+0x10>
 8000dd2:	f423 7380 	bic.w	r3, r3, #256	; 0x100
 8000dd6:	f023 0301 	bic.w	r3, r3, #1
 8000dda:	e003      	b.n	8000de4 <XMC_SCU_CLOCK_SetSystemPllClockSource+0x18>
 8000ddc:	f443 7380 	orr.w	r3, r3, #256	; 0x100
 8000de0:	f043 0301 	orr.w	r3, r3, #1
 8000de4:	60d3      	str	r3, [r2, #12]
 8000de6:	4770      	bx	lr
 8000de8:	50004710 	.word	0x50004710

08000dec <XMC_SCU_HIB_SetRtcClockSource>:
 8000dec:	4b05      	ldr	r3, [pc, #20]	; (8000e04 <XMC_SCU_HIB_SetRtcClockSource+0x18>)
 8000dee:	f8d3 30c4 	ldr.w	r3, [r3, #196]	; 0xc4
 8000df2:	071b      	lsls	r3, r3, #28
 8000df4:	d4fa      	bmi.n	8000dec <XMC_SCU_HIB_SetRtcClockSource>
 8000df6:	4a04      	ldr	r2, [pc, #16]	; (8000e08 <XMC_SCU_HIB_SetRtcClockSource+0x1c>)
 8000df8:	68d3      	ldr	r3, [r2, #12]
 8000dfa:	f023 0340 	bic.w	r3, r3, #64	; 0x40
 8000dfe:	4318      	orrs	r0, r3
 8000e00:	60d0      	str	r0, [r2, #12]
 8000e02:	4770      	bx	lr
 8000e04:	50004000 	.word	0x50004000
 8000e08:	50004300 	.word	0x50004300

08000e0c <XMC_SCU_HIB_SetStandbyClockSource>:
 8000e0c:	4b05      	ldr	r3, [pc, #20]	; (8000e24 <XMC_SCU_HIB_SetStandbyClockSource+0x18>)
 8000e0e:	f8d3 30c4 	ldr.w	r3, [r3, #196]	; 0xc4
 8000e12:	071b      	lsls	r3, r3, #28
 8000e14:	d4fa      	bmi.n	8000e0c <XMC_SCU_HIB_SetStandbyClockSource>
 8000e16:	4a04      	ldr	r2, [pc, #16]	; (8000e28 <XMC_SCU_HIB_SetStandbyClockSource+0x1c>)
 8000e18:	68d3      	ldr	r3, [r2, #12]
 8000e1a:	f023 0380 	bic.w	r3, r3, #128	; 0x80
 8000e1e:	4318      	orrs	r0, r3
 8000e20:	60d0      	str	r0, [r2, #12]
 8000e22:	4770      	bx	lr
 8000e24:	50004000 	.word	0x50004000
 8000e28:	50004300 	.word	0x50004300

08000e2c <XMC_SCU_CLOCK_SetSystemClockDivider>:
 8000e2c:	4a03      	ldr	r2, [pc, #12]	; (8000e3c <XMC_SCU_CLOCK_SetSystemClockDivider+0x10>)
 8000e2e:	68d3      	ldr	r3, [r2, #12]
 8000e30:	3801      	subs	r0, #1
 8000e32:	f023 03ff 	bic.w	r3, r3, #255	; 0xff
 8000e36:	4303      	orrs	r3, r0
 8000e38:	60d3      	str	r3, [r2, #12]
 8000e3a:	4770      	bx	lr
 8000e3c:	50004600 	.word	0x50004600

08000e40 <XMC_SCU_CLOCK_SetCcuClockDivider>:
 8000e40:	4a03      	ldr	r2, [pc, #12]	; (8000e50 <XMC_SCU_CLOCK_SetCcuClockDivider+0x10>)
 8000e42:	6a13      	ldr	r3, [r2, #32]
 8000e44:	3801      	subs	r0, #1
 8000e46:	f023 0301 	bic.w	r3, r3, #1
 8000e4a:	4303      	orrs	r3, r0
 8000e4c:	6213      	str	r3, [r2, #32]
 8000e4e:	4770      	bx	lr
 8000e50:	50004600 	.word	0x50004600

08000e54 <XMC_SCU_CLOCK_SetCpuClockDivider>:
 8000e54:	4a03      	ldr	r2, [pc, #12]	; (8000e64 <XMC_SCU_CLOCK_SetCpuClockDivider+0x10>)
 8000e56:	6913      	ldr	r3, [r2, #16]
 8000e58:	3801      	subs	r0, #1
 8000e5a:	f023 0301 	bic.w	r3, r3, #1
 8000e5e:	4303      	orrs	r3, r0
 8000e60:	6113      	str	r3, [r2, #16]
 8000e62:	4770      	bx	lr
 8000e64:	50004600 	.word	0x50004600

08000e68 <XMC_SCU_CLOCK_SetPeripheralClockDivider>:
 8000e68:	4a03      	ldr	r2, [pc, #12]	; (8000e78 <XMC_SCU_CLOCK_SetPeripheralClockDivider+0x10>)
 8000e6a:	6953      	ldr	r3, [r2, #20]
 8000e6c:	3801      	subs	r0, #1
 8000e6e:	f023 0301 	bic.w	r3, r3, #1
 8000e72:	4303      	orrs	r3, r0
 8000e74:	6153      	str	r3, [r2, #20]
 8000e76:	4770      	bx	lr
 8000e78:	50004600 	.word	0x50004600

08000e7c <XMC_SCU_CLOCK_SetUsbClockDivider>:
 8000e7c:	4a03      	ldr	r2, [pc, #12]	; (8000e8c <XMC_SCU_CLOCK_SetUsbClockDivider+0x10>)
 8000e7e:	6993      	ldr	r3, [r2, #24]
 8000e80:	3801      	subs	r0, #1
 8000e82:	f023 0307 	bic.w	r3, r3, #7
 8000e86:	4303      	orrs	r3, r0
 8000e88:	6193      	str	r3, [r2, #24]
 8000e8a:	4770      	bx	lr
 8000e8c:	50004600 	.word	0x50004600

08000e90 <XMC_SCU_CLOCK_SetWdtClockDivider>:
 8000e90:	4a03      	ldr	r2, [pc, #12]	; (8000ea0 <XMC_SCU_CLOCK_SetWdtClockDivider+0x10>)
 8000e92:	6a53      	ldr	r3, [r2, #36]	; 0x24
 8000e94:	3801      	subs	r0, #1
 8000e96:	f023 03ff 	bic.w	r3, r3, #255	; 0xff
 8000e9a:	4303      	orrs	r3, r0
 8000e9c:	6253      	str	r3, [r2, #36]	; 0x24
 8000e9e:	4770      	bx	lr
 8000ea0:	50004600 	.word	0x50004600

08000ea4 <XMC_SCU_CLOCK_EnableClock>:
 8000ea4:	4b01      	ldr	r3, [pc, #4]	; (8000eac <XMC_SCU_CLOCK_EnableClock+0x8>)
 8000ea6:	6058      	str	r0, [r3, #4]
 8000ea8:	4770      	bx	lr
 8000eaa:	bf00      	nop
 8000eac:	50004600 	.word	0x50004600

08000eb0 <XMC_SCU_CLOCK_UngatePeripheralClock>:
 8000eb0:	f020 4270 	bic.w	r2, r0, #4026531840	; 0xf0000000
 8000eb4:	230c      	movs	r3, #12
 8000eb6:	0f00      	lsrs	r0, r0, #28
 8000eb8:	4358      	muls	r0, r3
 8000eba:	4b01      	ldr	r3, [pc, #4]	; (8000ec0 <XMC_SCU_CLOCK_UngatePeripheralClock+0x10>)
 8000ebc:	50c2      	str	r2, [r0, r3]
 8000ebe:	4770      	bx	lr
 8000ec0:	50004648 	.word	0x50004648

08000ec4 <XMC_SCU_CLOCK_IsPeripheralClockGated>:
 8000ec4:	0f02      	lsrs	r2, r0, #28
 8000ec6:	230c      	movs	r3, #12
 8000ec8:	4353      	muls	r3, r2
 8000eca:	4a04      	ldr	r2, [pc, #16]	; (8000edc <XMC_SCU_CLOCK_IsPeripheralClockGated+0x18>)
 8000ecc:	589b      	ldr	r3, [r3, r2]
 8000ece:	f020 4070 	bic.w	r0, r0, #4026531840	; 0xf0000000
 8000ed2:	4218      	tst	r0, r3
 8000ed4:	bf14      	ite	ne
 8000ed6:	2001      	movne	r0, #1
 8000ed8:	2000      	moveq	r0, #0
 8000eda:	4770      	bx	lr
 8000edc:	50004640 	.word	0x50004640

08000ee0 <XMC_SCU_CLOCK_EnableUsbPll>:
 8000ee0:	4a03      	ldr	r2, [pc, #12]	; (8000ef0 <XMC_SCU_CLOCK_EnableUsbPll+0x10>)
 8000ee2:	6953      	ldr	r3, [r2, #20]
 8000ee4:	f423 3380 	bic.w	r3, r3, #65536	; 0x10000
 8000ee8:	f023 0302 	bic.w	r3, r3, #2
 8000eec:	6153      	str	r3, [r2, #20]
 8000eee:	4770      	bx	lr
 8000ef0:	50004710 	.word	0x50004710

08000ef4 <XMC_SCU_CLOCK_StartUsbPll>:
 8000ef4:	4a19      	ldr	r2, [pc, #100]	; (8000f5c <XMC_SCU_CLOCK_StartUsbPll+0x68>)
 8000ef6:	6953      	ldr	r3, [r2, #20]
 8000ef8:	f043 0301 	orr.w	r3, r3, #1
 8000efc:	b510      	push	{r4, lr}
 8000efe:	6153      	str	r3, [r2, #20]
 8000f00:	6914      	ldr	r4, [r2, #16]
 8000f02:	4b16      	ldr	r3, [pc, #88]	; (8000f5c <XMC_SCU_CLOCK_StartUsbPll+0x68>)
 8000f04:	07e4      	lsls	r4, r4, #31
 8000f06:	d5fb      	bpl.n	8000f00 <XMC_SCU_CLOCK_StartUsbPll+0xc>
 8000f08:	695c      	ldr	r4, [r3, #20]
 8000f0a:	3801      	subs	r0, #1
 8000f0c:	3901      	subs	r1, #1
 8000f0e:	0600      	lsls	r0, r0, #24
 8000f10:	ea40 2001 	orr.w	r0, r0, r1, lsl #8
 8000f14:	f044 0410 	orr.w	r4, r4, #16
 8000f18:	615c      	str	r4, [r3, #20]
 8000f1a:	6158      	str	r0, [r3, #20]
 8000f1c:	6959      	ldr	r1, [r3, #20]
 8000f1e:	f041 0140 	orr.w	r1, r1, #64	; 0x40
 8000f22:	6159      	str	r1, [r3, #20]
 8000f24:	6959      	ldr	r1, [r3, #20]
 8000f26:	f021 0110 	bic.w	r1, r1, #16
 8000f2a:	6159      	str	r1, [r3, #20]
 8000f2c:	6959      	ldr	r1, [r3, #20]
 8000f2e:	f441 2180 	orr.w	r1, r1, #262144	; 0x40000
 8000f32:	6159      	str	r1, [r3, #20]
 8000f34:	6913      	ldr	r3, [r2, #16]
 8000f36:	4909      	ldr	r1, [pc, #36]	; (8000f5c <XMC_SCU_CLOCK_StartUsbPll+0x68>)
 8000f38:	0758      	lsls	r0, r3, #29
 8000f3a:	d5fb      	bpl.n	8000f34 <XMC_SCU_CLOCK_StartUsbPll+0x40>
 8000f3c:	694b      	ldr	r3, [r1, #20]
 8000f3e:	f023 0301 	bic.w	r3, r3, #1
 8000f42:	614b      	str	r3, [r1, #20]
 8000f44:	6913      	ldr	r3, [r2, #16]
 8000f46:	4905      	ldr	r1, [pc, #20]	; (8000f5c <XMC_SCU_CLOCK_StartUsbPll+0x68>)
 8000f48:	07db      	lsls	r3, r3, #31
 8000f4a:	d4fb      	bmi.n	8000f44 <XMC_SCU_CLOCK_StartUsbPll+0x50>
 8000f4c:	694b      	ldr	r3, [r1, #20]
 8000f4e:	f023 0340 	bic.w	r3, r3, #64	; 0x40
 8000f52:	614b      	str	r3, [r1, #20]
 8000f54:	4b02      	ldr	r3, [pc, #8]	; (8000f60 <XMC_SCU_CLOCK_StartUsbPll+0x6c>)
 8000f56:	2208      	movs	r2, #8
 8000f58:	60da      	str	r2, [r3, #12]
 8000f5a:	bd10      	pop	{r4, pc}
 8000f5c:	50004710 	.word	0x50004710
 8000f60:	50004160 	.word	0x50004160

08000f64 <XMC_SCU_CLOCK_SetBackupClockCalibrationMode>:
 8000f64:	b510      	push	{r4, lr}
 8000f66:	4c0b      	ldr	r4, [pc, #44]	; (8000f94 <XMC_SCU_CLOCK_SetBackupClockCalibrationMode+0x30>)
 8000f68:	6863      	ldr	r3, [r4, #4]
 8000f6a:	2801      	cmp	r0, #1
 8000f6c:	f443 1380 	orr.w	r3, r3, #1048576	; 0x100000
 8000f70:	6063      	str	r3, [r4, #4]
 8000f72:	d10a      	bne.n	8000f8a <XMC_SCU_CLOCK_SetBackupClockCalibrationMode+0x26>
 8000f74:	6863      	ldr	r3, [r4, #4]
 8000f76:	f423 1380 	bic.w	r3, r3, #1048576	; 0x100000
 8000f7a:	6063      	str	r3, [r4, #4]
 8000f7c:	2064      	movs	r0, #100	; 0x64
 8000f7e:	f7ff fecd 	bl	8000d1c <XMC_SCU_lDelay>
 8000f82:	6863      	ldr	r3, [r4, #4]
 8000f84:	f443 2300 	orr.w	r3, r3, #524288	; 0x80000
 8000f88:	6063      	str	r3, [r4, #4]
 8000f8a:	2064      	movs	r0, #100	; 0x64
 8000f8c:	e8bd 4010 	ldmia.w	sp!, {r4, lr}
 8000f90:	f7ff bec4 	b.w	8000d1c <XMC_SCU_lDelay>
 8000f94:	50004710 	.word	0x50004710

08000f98 <XMC_SCU_HIB_EnableHibernateDomain>:
 8000f98:	4b0a      	ldr	r3, [pc, #40]	; (8000fc4 <XMC_SCU_HIB_EnableHibernateDomain+0x2c>)
 8000f9a:	681a      	ldr	r2, [r3, #0]
 8000f9c:	07d2      	lsls	r2, r2, #31
 8000f9e:	d504      	bpl.n	8000faa <XMC_SCU_HIB_EnableHibernateDomain+0x12>
 8000fa0:	4b09      	ldr	r3, [pc, #36]	; (8000fc8 <XMC_SCU_HIB_EnableHibernateDomain+0x30>)
 8000fa2:	681a      	ldr	r2, [r3, #0]
 8000fa4:	0590      	lsls	r0, r2, #22
 8000fa6:	d406      	bmi.n	8000fb6 <XMC_SCU_HIB_EnableHibernateDomain+0x1e>
 8000fa8:	4770      	bx	lr
 8000faa:	2201      	movs	r2, #1
 8000fac:	605a      	str	r2, [r3, #4]
 8000fae:	681a      	ldr	r2, [r3, #0]
 8000fb0:	07d1      	lsls	r1, r2, #31
 8000fb2:	d5fc      	bpl.n	8000fae <XMC_SCU_HIB_EnableHibernateDomain+0x16>
 8000fb4:	e7f4      	b.n	8000fa0 <XMC_SCU_HIB_EnableHibernateDomain+0x8>
 8000fb6:	f44f 7200 	mov.w	r2, #512	; 0x200
 8000fba:	609a      	str	r2, [r3, #8]
 8000fbc:	681a      	ldr	r2, [r3, #0]
 8000fbe:	0592      	lsls	r2, r2, #22
 8000fc0:	d4fc      	bmi.n	8000fbc <XMC_SCU_HIB_EnableHibernateDomain+0x24>
 8000fc2:	4770      	bx	lr
 8000fc4:	50004200 	.word	0x50004200
 8000fc8:	50004400 	.word	0x50004400

08000fcc <XMC_SCU_CLOCK_IsLowPowerOscillatorStable>:
 8000fcc:	4b03      	ldr	r3, [pc, #12]	; (8000fdc <XMC_SCU_CLOCK_IsLowPowerOscillatorStable+0x10>)
 8000fce:	6818      	ldr	r0, [r3, #0]
 8000fd0:	f080 0008 	eor.w	r0, r0, #8
 8000fd4:	f3c0 00c0 	ubfx	r0, r0, #3, #1
 8000fd8:	4770      	bx	lr
 8000fda:	bf00      	nop
 8000fdc:	50004300 	.word	0x50004300

08000fe0 <XMC_SCU_CLOCK_EnableLowPowerOscillator>:
 8000fe0:	4b10      	ldr	r3, [pc, #64]	; (8001024 <XMC_SCU_CLOCK_EnableLowPowerOscillator+0x44>)
 8000fe2:	f44f 0200 	mov.w	r2, #8388608	; 0x800000
 8000fe6:	60da      	str	r2, [r3, #12]
 8000fe8:	4a0f      	ldr	r2, [pc, #60]	; (8001028 <XMC_SCU_CLOCK_EnableLowPowerOscillator+0x48>)
 8000fea:	69d1      	ldr	r1, [r2, #28]
 8000fec:	f021 0130 	bic.w	r1, r1, #48	; 0x30
 8000ff0:	61d1      	str	r1, [r2, #28]
 8000ff2:	6859      	ldr	r1, [r3, #4]
 8000ff4:	0208      	lsls	r0, r1, #8
 8000ff6:	d5fc      	bpl.n	8000ff2 <XMC_SCU_CLOCK_EnableLowPowerOscillator+0x12>
 8000ff8:	490a      	ldr	r1, [pc, #40]	; (8001024 <XMC_SCU_CLOCK_EnableLowPowerOscillator+0x44>)
 8000ffa:	f44f 3000 	mov.w	r0, #131072	; 0x20000
 8000ffe:	60c8      	str	r0, [r1, #12]
 8001000:	2108      	movs	r1, #8
 8001002:	6051      	str	r1, [r2, #4]
 8001004:	685a      	ldr	r2, [r3, #4]
 8001006:	0391      	lsls	r1, r2, #14
 8001008:	d5fc      	bpl.n	8001004 <XMC_SCU_CLOCK_EnableLowPowerOscillator+0x24>
 800100a:	4a06      	ldr	r2, [pc, #24]	; (8001024 <XMC_SCU_CLOCK_EnableLowPowerOscillator+0x44>)
 800100c:	f44f 2100 	mov.w	r1, #524288	; 0x80000
 8001010:	60d1      	str	r1, [r2, #12]
 8001012:	4905      	ldr	r1, [pc, #20]	; (8001028 <XMC_SCU_CLOCK_EnableLowPowerOscillator+0x48>)
 8001014:	68ca      	ldr	r2, [r1, #12]
 8001016:	f042 0208 	orr.w	r2, r2, #8
 800101a:	60ca      	str	r2, [r1, #12]
 800101c:	685a      	ldr	r2, [r3, #4]
 800101e:	0312      	lsls	r2, r2, #12
 8001020:	d5fc      	bpl.n	800101c <XMC_SCU_CLOCK_EnableLowPowerOscillator+0x3c>
 8001022:	4770      	bx	lr
 8001024:	50004074 	.word	0x50004074
 8001028:	50004300 	.word	0x50004300

0800102c <XMC_SCU_CLOCK_EnableHighPerformanceOscillator>:
 800102c:	b570      	push	{r4, r5, r6, lr}
 800102e:	4d0c      	ldr	r5, [pc, #48]	; (8001060 <XMC_SCU_CLOCK_EnableHighPerformanceOscillator+0x34>)
 8001030:	4e0c      	ldr	r6, [pc, #48]	; (8001064 <XMC_SCU_CLOCK_EnableHighPerformanceOscillator+0x38>)
 8001032:	686b      	ldr	r3, [r5, #4]
 8001034:	f423 3380 	bic.w	r3, r3, #65536	; 0x10000
 8001038:	606b      	str	r3, [r5, #4]
 800103a:	6874      	ldr	r4, [r6, #4]
 800103c:	f001 fc2e 	bl	800289c <OSCHP_GetFrequency>
 8001040:	4b09      	ldr	r3, [pc, #36]	; (8001068 <XMC_SCU_CLOCK_EnableHighPerformanceOscillator+0x3c>)
 8001042:	fbb0 f0f3 	udiv	r0, r0, r3
 8001046:	f424 2370 	bic.w	r3, r4, #983040	; 0xf0000
 800104a:	3801      	subs	r0, #1
 800104c:	f023 0330 	bic.w	r3, r3, #48	; 0x30
 8001050:	ea43 4300 	orr.w	r3, r3, r0, lsl #16
 8001054:	6073      	str	r3, [r6, #4]
 8001056:	686b      	ldr	r3, [r5, #4]
 8001058:	f423 3300 	bic.w	r3, r3, #131072	; 0x20000
 800105c:	606b      	str	r3, [r5, #4]
 800105e:	bd70      	pop	{r4, r5, r6, pc}
 8001060:	50004710 	.word	0x50004710
 8001064:	50004700 	.word	0x50004700
 8001068:	002625a0 	.word	0x002625a0

0800106c <XMC_SCU_CLOCK_IsHighPerformanceOscillatorStable>:
 800106c:	4b04      	ldr	r3, [pc, #16]	; (8001080 <XMC_SCU_CLOCK_IsHighPerformanceOscillatorStable+0x14>)
 800106e:	6818      	ldr	r0, [r3, #0]
 8001070:	f400 7060 	and.w	r0, r0, #896	; 0x380
 8001074:	f5a0 7360 	sub.w	r3, r0, #896	; 0x380
 8001078:	4258      	negs	r0, r3
 800107a:	4158      	adcs	r0, r3
 800107c:	4770      	bx	lr
 800107e:	bf00      	nop
 8001080:	50004710 	.word	0x50004710

08001084 <XMC_SCU_CLOCK_EnableSystemPll>:
 8001084:	4a03      	ldr	r2, [pc, #12]	; (8001094 <XMC_SCU_CLOCK_EnableSystemPll+0x10>)
 8001086:	6853      	ldr	r3, [r2, #4]
 8001088:	f423 3380 	bic.w	r3, r3, #65536	; 0x10000
 800108c:	f023 0302 	bic.w	r3, r3, #2
 8001090:	6053      	str	r3, [r2, #4]
 8001092:	4770      	bx	lr
 8001094:	50004710 	.word	0x50004710

08001098 <XMC_SCU_CLOCK_DisableSystemPll>:
 8001098:	4a03      	ldr	r2, [pc, #12]	; (80010a8 <XMC_SCU_CLOCK_DisableSystemPll+0x10>)
 800109a:	6853      	ldr	r3, [r2, #4]
 800109c:	f443 3380 	orr.w	r3, r3, #65536	; 0x10000
 80010a0:	f043 0302 	orr.w	r3, r3, #2
 80010a4:	6053      	str	r3, [r2, #4]
 80010a6:	4770      	bx	lr
 80010a8:	50004710 	.word	0x50004710

080010ac <XMC_SCU_CLOCK_StepSystemPllFrequency>:
 80010ac:	4b06      	ldr	r3, [pc, #24]	; (80010c8 <XMC_SCU_CLOCK_StepSystemPllFrequency+0x1c>)
 80010ae:	689a      	ldr	r2, [r3, #8]
 80010b0:	3801      	subs	r0, #1
 80010b2:	f422 02fe 	bic.w	r2, r2, #8323072	; 0x7f0000
 80010b6:	ea42 4200 	orr.w	r2, r2, r0, lsl #16
 80010ba:	609a      	str	r2, [r3, #8]
 80010bc:	681a      	ldr	r2, [r3, #0]
 80010be:	0692      	lsls	r2, r2, #26
 80010c0:	d5fc      	bpl.n	80010bc <XMC_SCU_CLOCK_StepSystemPllFrequency+0x10>
 80010c2:	2032      	movs	r0, #50	; 0x32
 80010c4:	f7ff be2a 	b.w	8000d1c <XMC_SCU_lDelay>
 80010c8:	50004710 	.word	0x50004710

080010cc <XMC_SCU_CLOCK_StartSystemPll>:
 80010cc:	e92d 41f0 	stmdb	sp!, {r4, r5, r6, r7, r8, lr}
 80010d0:	460f      	mov	r7, r1
 80010d2:	4604      	mov	r4, r0
 80010d4:	4690      	mov	r8, r2
 80010d6:	461e      	mov	r6, r3
 80010d8:	9d06      	ldr	r5, [sp, #24]
 80010da:	f7ff fe77 	bl	8000dcc <XMC_SCU_CLOCK_SetSystemPllClockSource>
 80010de:	2f01      	cmp	r7, #1
 80010e0:	4f36      	ldr	r7, [pc, #216]	; (80011bc <XMC_SCU_CLOCK_StartSystemPll+0xf0>)
 80010e2:	d155      	bne.n	8001190 <XMC_SCU_CLOCK_StartSystemPll+0xc4>
 80010e4:	b934      	cbnz	r4, 80010f4 <XMC_SCU_CLOCK_StartSystemPll+0x28>
 80010e6:	f001 fbd9 	bl	800289c <OSCHP_GetFrequency>
 80010ea:	4c35      	ldr	r4, [pc, #212]	; (80011c0 <XMC_SCU_CLOCK_StartSystemPll+0xf4>)
 80010ec:	fbb0 f0f4 	udiv	r0, r0, r4
 80010f0:	0580      	lsls	r0, r0, #22
 80010f2:	e001      	b.n	80010f8 <XMC_SCU_CLOCK_StartSystemPll+0x2c>
 80010f4:	f04f 60c0 	mov.w	r0, #100663296	; 0x6000000
 80010f8:	687b      	ldr	r3, [r7, #4]
 80010fa:	f043 0301 	orr.w	r3, r3, #1
 80010fe:	4370      	muls	r0, r6
 8001100:	2218      	movs	r2, #24
 8001102:	fbb0 f4f8 	udiv	r4, r0, r8
 8001106:	607b      	str	r3, [r7, #4]
 8001108:	fbb4 f2f2 	udiv	r2, r4, r2
 800110c:	0d92      	lsrs	r2, r2, #22
 800110e:	683b      	ldr	r3, [r7, #0]
 8001110:	492a      	ldr	r1, [pc, #168]	; (80011bc <XMC_SCU_CLOCK_StartSystemPll+0xf0>)
 8001112:	07db      	lsls	r3, r3, #31
 8001114:	d5fb      	bpl.n	800110e <XMC_SCU_CLOCK_StartSystemPll+0x42>
 8001116:	684b      	ldr	r3, [r1, #4]
 8001118:	f043 0310 	orr.w	r3, r3, #16
 800111c:	604b      	str	r3, [r1, #4]
 800111e:	6888      	ldr	r0, [r1, #8]
 8001120:	4b28      	ldr	r3, [pc, #160]	; (80011c4 <XMC_SCU_CLOCK_StartSystemPll+0xf8>)
 8001122:	f108 38ff 	add.w	r8, r8, #4294967295
 8001126:	4003      	ands	r3, r0
 8001128:	ea43 6308 	orr.w	r3, r3, r8, lsl #24
 800112c:	3e01      	subs	r6, #1
 800112e:	ea43 2306 	orr.w	r3, r3, r6, lsl #8
 8001132:	3a01      	subs	r2, #1
 8001134:	ea43 4302 	orr.w	r3, r3, r2, lsl #16
 8001138:	608b      	str	r3, [r1, #8]
 800113a:	684b      	ldr	r3, [r1, #4]
 800113c:	f043 0340 	orr.w	r3, r3, #64	; 0x40
 8001140:	604b      	str	r3, [r1, #4]
 8001142:	684b      	ldr	r3, [r1, #4]
 8001144:	f023 0310 	bic.w	r3, r3, #16
 8001148:	604b      	str	r3, [r1, #4]
 800114a:	684b      	ldr	r3, [r1, #4]
 800114c:	f443 2380 	orr.w	r3, r3, #262144	; 0x40000
 8001150:	604b      	str	r3, [r1, #4]
 8001152:	683b      	ldr	r3, [r7, #0]
 8001154:	4a19      	ldr	r2, [pc, #100]	; (80011bc <XMC_SCU_CLOCK_StartSystemPll+0xf0>)
 8001156:	075e      	lsls	r6, r3, #29
 8001158:	d5fb      	bpl.n	8001152 <XMC_SCU_CLOCK_StartSystemPll+0x86>
 800115a:	6853      	ldr	r3, [r2, #4]
 800115c:	f023 0301 	bic.w	r3, r3, #1
 8001160:	6053      	str	r3, [r2, #4]
 8001162:	683b      	ldr	r3, [r7, #0]
 8001164:	07d8      	lsls	r0, r3, #31
 8001166:	d4fc      	bmi.n	8001162 <XMC_SCU_CLOCK_StartSystemPll+0x96>
 8001168:	203c      	movs	r0, #60	; 0x3c
 800116a:	fbb4 f0f0 	udiv	r0, r4, r0
 800116e:	0d80      	lsrs	r0, r0, #22
 8001170:	4285      	cmp	r5, r0
 8001172:	d201      	bcs.n	8001178 <XMC_SCU_CLOCK_StartSystemPll+0xac>
 8001174:	f7ff ff9a 	bl	80010ac <XMC_SCU_CLOCK_StepSystemPllFrequency>
 8001178:	205a      	movs	r0, #90	; 0x5a
 800117a:	fbb4 f0f0 	udiv	r0, r4, r0
 800117e:	0d80      	lsrs	r0, r0, #22
 8001180:	4285      	cmp	r5, r0
 8001182:	d201      	bcs.n	8001188 <XMC_SCU_CLOCK_StartSystemPll+0xbc>
 8001184:	f7ff ff92 	bl	80010ac <XMC_SCU_CLOCK_StepSystemPllFrequency>
 8001188:	4628      	mov	r0, r5
 800118a:	f7ff ff8f 	bl	80010ac <XMC_SCU_CLOCK_StepSystemPllFrequency>
 800118e:	e010      	b.n	80011b2 <XMC_SCU_CLOCK_StartSystemPll+0xe6>
 8001190:	68bb      	ldr	r3, [r7, #8]
 8001192:	3d01      	subs	r5, #1
 8001194:	f023 037f 	bic.w	r3, r3, #127	; 0x7f
 8001198:	431d      	orrs	r5, r3
 800119a:	60bd      	str	r5, [r7, #8]
 800119c:	683b      	ldr	r3, [r7, #0]
 800119e:	4a07      	ldr	r2, [pc, #28]	; (80011bc <XMC_SCU_CLOCK_StartSystemPll+0xf0>)
 80011a0:	06d9      	lsls	r1, r3, #27
 80011a2:	d5fb      	bpl.n	800119c <XMC_SCU_CLOCK_StartSystemPll+0xd0>
 80011a4:	6853      	ldr	r3, [r2, #4]
 80011a6:	f043 0301 	orr.w	r3, r3, #1
 80011aa:	6053      	str	r3, [r2, #4]
 80011ac:	683b      	ldr	r3, [r7, #0]
 80011ae:	07db      	lsls	r3, r3, #31
 80011b0:	d5fc      	bpl.n	80011ac <XMC_SCU_CLOCK_StartSystemPll+0xe0>
 80011b2:	4b05      	ldr	r3, [pc, #20]	; (80011c8 <XMC_SCU_CLOCK_StartSystemPll+0xfc>)
 80011b4:	2205      	movs	r2, #5
 80011b6:	60da      	str	r2, [r3, #12]
 80011b8:	e8bd 81f0 	ldmia.w	sp!, {r4, r5, r6, r7, r8, pc}
 80011bc:	50004710 	.word	0x50004710
 80011c0:	000f4240 	.word	0x000f4240
 80011c4:	f08080ff 	.word	0xf08080ff
 80011c8:	50004160 	.word	0x50004160

080011cc <XMC_SCU_CLOCK_Init>:
 80011cc:	b537      	push	{r0, r1, r2, r4, r5, lr}
 80011ce:	4604      	mov	r4, r0
 80011d0:	2000      	movs	r0, #0
 80011d2:	f7ff fddd 	bl	8000d90 <XMC_SCU_CLOCK_SetSystemClockSource>
 80011d6:	f7ff fedf 	bl	8000f98 <XMC_SCU_HIB_EnableHibernateDomain>
 80011da:	79e3      	ldrb	r3, [r4, #7]
 80011dc:	b91b      	cbnz	r3, 80011e6 <XMC_SCU_CLOCK_Init+0x1a>
 80011de:	7a60      	ldrb	r0, [r4, #9]
 80011e0:	f7ff fe14 	bl	8000e0c <XMC_SCU_HIB_SetStandbyClockSource>
 80011e4:	e006      	b.n	80011f4 <XMC_SCU_CLOCK_Init+0x28>
 80011e6:	f7ff fefb 	bl	8000fe0 <XMC_SCU_CLOCK_EnableLowPowerOscillator>
 80011ea:	f7ff feef 	bl	8000fcc <XMC_SCU_CLOCK_IsLowPowerOscillatorStable>
 80011ee:	2800      	cmp	r0, #0
 80011f0:	d0fb      	beq.n	80011ea <XMC_SCU_CLOCK_Init+0x1e>
 80011f2:	e7f4      	b.n	80011de <XMC_SCU_CLOCK_Init+0x12>
 80011f4:	4b1c      	ldr	r3, [pc, #112]	; (8001268 <XMC_SCU_CLOCK_Init+0x9c>)
 80011f6:	f8d3 30c4 	ldr.w	r3, [r3, #196]	; 0xc4
 80011fa:	2b00      	cmp	r3, #0
 80011fc:	d1fa      	bne.n	80011f4 <XMC_SCU_CLOCK_Init+0x28>
 80011fe:	7a20      	ldrb	r0, [r4, #8]
 8001200:	f7ff feb0 	bl	8000f64 <XMC_SCU_CLOCK_SetBackupClockCalibrationMode>
 8001204:	7c20      	ldrb	r0, [r4, #16]
 8001206:	f7ff fe11 	bl	8000e2c <XMC_SCU_CLOCK_SetSystemClockDivider>
 800120a:	7c60      	ldrb	r0, [r4, #17]
 800120c:	f7ff fe22 	bl	8000e54 <XMC_SCU_CLOCK_SetCpuClockDivider>
 8001210:	7ca0      	ldrb	r0, [r4, #18]
 8001212:	f7ff fe15 	bl	8000e40 <XMC_SCU_CLOCK_SetCcuClockDivider>
 8001216:	7ce0      	ldrb	r0, [r4, #19]
 8001218:	f7ff fe26 	bl	8000e68 <XMC_SCU_CLOCK_SetPeripheralClockDivider>
 800121c:	79a3      	ldrb	r3, [r4, #6]
 800121e:	b913      	cbnz	r3, 8001226 <XMC_SCU_CLOCK_Init+0x5a>
 8001220:	78e3      	ldrb	r3, [r4, #3]
 8001222:	b13b      	cbz	r3, 8001234 <XMC_SCU_CLOCK_Init+0x68>
 8001224:	e00b      	b.n	800123e <XMC_SCU_CLOCK_Init+0x72>
 8001226:	f7ff ff01 	bl	800102c <XMC_SCU_CLOCK_EnableHighPerformanceOscillator>
 800122a:	f7ff ff1f 	bl	800106c <XMC_SCU_CLOCK_IsHighPerformanceOscillatorStable>
 800122e:	2800      	cmp	r0, #0
 8001230:	d0fb      	beq.n	800122a <XMC_SCU_CLOCK_Init+0x5e>
 8001232:	e7f5      	b.n	8001220 <XMC_SCU_CLOCK_Init+0x54>
 8001234:	79a3      	ldrb	r3, [r4, #6]
 8001236:	b963      	cbnz	r3, 8001252 <XMC_SCU_CLOCK_Init+0x86>
 8001238:	f7ff ff2e 	bl	8001098 <XMC_SCU_CLOCK_DisableSystemPll>
 800123c:	e009      	b.n	8001252 <XMC_SCU_CLOCK_Init+0x86>
 800123e:	f7ff ff21 	bl	8001084 <XMC_SCU_CLOCK_EnableSystemPll>
 8001242:	78a5      	ldrb	r5, [r4, #2]
 8001244:	88a0      	ldrh	r0, [r4, #4]
 8001246:	78e1      	ldrb	r1, [r4, #3]
 8001248:	7862      	ldrb	r2, [r4, #1]
 800124a:	7823      	ldrb	r3, [r4, #0]
 800124c:	9500      	str	r5, [sp, #0]
 800124e:	f7ff ff3d 	bl	80010cc <XMC_SCU_CLOCK_StartSystemPll>
 8001252:	68e0      	ldr	r0, [r4, #12]
 8001254:	f5b0 3f80 	cmp.w	r0, #65536	; 0x10000
 8001258:	d101      	bne.n	800125e <XMC_SCU_CLOCK_Init+0x92>
 800125a:	f7ff fd99 	bl	8000d90 <XMC_SCU_CLOCK_SetSystemClockSource>
 800125e:	b003      	add	sp, #12
 8001260:	e8bd 4030 	ldmia.w	sp!, {r4, r5, lr}
 8001264:	f7ff bca4 	b.w	8000bb0 <SystemCoreClockUpdate>
 8001268:	50004000 	.word	0x50004000

0800126c <XMC_CAN_NODE_NominalBitTimeConfigureEx>:
 800126c:	e891 000c 	ldmia.w	r1, {r2, r3}
 8001270:	b5f0      	push	{r4, r5, r6, r7, lr}
 8001272:	fbb2 fef3 	udiv	lr, r2, r3
 8001276:	fb03 231e 	mls	r3, r3, lr, r2
 800127a:	bb1b      	cbnz	r3, 80012c4 <XMC_CAN_NODE_NominalBitTimeConfigureEx+0x58>
 800127c:	2718      	movs	r7, #24
 800127e:	1c7a      	adds	r2, r7, #1
 8001280:	fbbe f4f2 	udiv	r4, lr, r2
 8001284:	fb02 e614 	mls	r6, r2, r4, lr
 8001288:	b9ce      	cbnz	r6, 80012be <XMC_CAN_NODE_NominalBitTimeConfigureEx+0x52>
 800128a:	1e63      	subs	r3, r4, #1
 800128c:	f5b3 7f00 	cmp.w	r3, #512	; 0x200
 8001290:	d215      	bcs.n	80012be <XMC_CAN_NODE_NominalBitTimeConfigureEx+0x52>
 8001292:	2c3f      	cmp	r4, #63	; 0x3f
 8001294:	d902      	bls.n	800129c <XMC_CAN_NODE_NominalBitTimeConfigureEx+0x30>
 8001296:	0763      	lsls	r3, r4, #29
 8001298:	d111      	bne.n	80012be <XMC_CAN_NODE_NominalBitTimeConfigureEx+0x52>
 800129a:	2601      	movs	r6, #1
 800129c:	890b      	ldrh	r3, [r1, #8]
 800129e:	f242 7510 	movw	r5, #10000	; 0x2710
 80012a2:	437b      	muls	r3, r7
 80012a4:	fbb3 f3f5 	udiv	r3, r3, r5
 80012a8:	1edd      	subs	r5, r3, #3
 80012aa:	2d0c      	cmp	r5, #12
 80012ac:	d807      	bhi.n	80012be <XMC_CAN_NODE_NominalBitTimeConfigureEx+0x52>
 80012ae:	1ad2      	subs	r2, r2, r3
 80012b0:	1ed5      	subs	r5, r2, #3
 80012b2:	2d04      	cmp	r5, #4
 80012b4:	d803      	bhi.n	80012be <XMC_CAN_NODE_NominalBitTimeConfigureEx+0x52>
 80012b6:	894d      	ldrh	r5, [r1, #10]
 80012b8:	3a01      	subs	r2, #1
 80012ba:	42aa      	cmp	r2, r5
 80012bc:	d204      	bcs.n	80012c8 <XMC_CAN_NODE_NominalBitTimeConfigureEx+0x5c>
 80012be:	3f01      	subs	r7, #1
 80012c0:	2f06      	cmp	r7, #6
 80012c2:	d1dc      	bne.n	800127e <XMC_CAN_NODE_NominalBitTimeConfigureEx+0x12>
 80012c4:	2001      	movs	r0, #1
 80012c6:	bdf0      	pop	{r4, r5, r6, r7, pc}
 80012c8:	3a01      	subs	r2, #1
 80012ca:	3d01      	subs	r5, #1
 80012cc:	0312      	lsls	r2, r2, #12
 80012ce:	01ad      	lsls	r5, r5, #6
 80012d0:	b2ed      	uxtb	r5, r5
 80012d2:	f402 42e0 	and.w	r2, r2, #28672	; 0x7000
 80012d6:	432a      	orrs	r2, r5
 80012d8:	ea42 32c6 	orr.w	r2, r2, r6, lsl #15
 80012dc:	3b01      	subs	r3, #1
 80012de:	eb06 0646 	add.w	r6, r6, r6, lsl #1
 80012e2:	40f4      	lsrs	r4, r6
 80012e4:	021b      	lsls	r3, r3, #8
 80012e6:	6801      	ldr	r1, [r0, #0]
 80012e8:	f403 6370 	and.w	r3, r3, #3840	; 0xf00
 80012ec:	3c01      	subs	r4, #1
 80012ee:	431a      	orrs	r2, r3
 80012f0:	f004 043f 	and.w	r4, r4, #63	; 0x3f
 80012f4:	f041 0140 	orr.w	r1, r1, #64	; 0x40
 80012f8:	4322      	orrs	r2, r4
 80012fa:	6001      	str	r1, [r0, #0]
 80012fc:	6102      	str	r2, [r0, #16]
 80012fe:	6803      	ldr	r3, [r0, #0]
 8001300:	f023 0340 	bic.w	r3, r3, #64	; 0x40
 8001304:	6003      	str	r3, [r0, #0]
 8001306:	2000      	movs	r0, #0
 8001308:	bdf0      	pop	{r4, r5, r6, r7, pc}

0800130a <XMC_CAN_AllocateMOtoNodeList>:
 800130a:	f8d0 31c4 	ldr.w	r3, [r0, #452]	; 0x1c4
 800130e:	f413 7f40 	tst.w	r3, #768	; 0x300
 8001312:	d1fa      	bne.n	800130a <XMC_CAN_AllocateMOtoNodeList>
 8001314:	0412      	lsls	r2, r2, #16
 8001316:	f042 0202 	orr.w	r2, r2, #2
 800131a:	3101      	adds	r1, #1
 800131c:	ea42 6101 	orr.w	r1, r2, r1, lsl #24
 8001320:	f8c0 11c4 	str.w	r1, [r0, #452]	; 0x1c4
 8001324:	4770      	bx	lr
	...

08001328 <XMC_CAN_Enable>:
 8001328:	b510      	push	{r4, lr}
 800132a:	4604      	mov	r4, r0
 800132c:	4806      	ldr	r0, [pc, #24]	; (8001348 <XMC_CAN_Enable+0x20>)
 800132e:	f7ff fdbf 	bl	8000eb0 <XMC_SCU_CLOCK_UngatePeripheralClock>
 8001332:	4805      	ldr	r0, [pc, #20]	; (8001348 <XMC_CAN_Enable+0x20>)
 8001334:	f7ff fd08 	bl	8000d48 <XMC_SCU_RESET_DeassertPeripheralReset>
 8001338:	6823      	ldr	r3, [r4, #0]
 800133a:	f023 0301 	bic.w	r3, r3, #1
 800133e:	6023      	str	r3, [r4, #0]
 8001340:	6823      	ldr	r3, [r4, #0]
 8001342:	079b      	lsls	r3, r3, #30
 8001344:	d4fc      	bmi.n	8001340 <XMC_CAN_Enable+0x18>
 8001346:	bd10      	pop	{r4, pc}
 8001348:	10000010 	.word	0x10000010

0800134c <XMC_CAN_InitEx>:
 800134c:	b538      	push	{r3, r4, r5, lr}
 800134e:	4605      	mov	r5, r0
 8001350:	4614      	mov	r4, r2
 8001352:	f7ff ffe9 	bl	8001328 <XMC_CAN_Enable>
 8001356:	f7ff fd0f 	bl	8000d78 <XMC_SCU_CLOCK_GetPeripheralClockFrequency>
 800135a:	fbb0 f2f4 	udiv	r2, r0, r4
 800135e:	f5c2 6280 	rsb	r2, r2, #1024	; 0x400
 8001362:	2a00      	cmp	r2, #0
 8001364:	bf38      	it	cc
 8001366:	2200      	movcc	r2, #0
 8001368:	f240 33ff 	movw	r3, #1023	; 0x3ff
 800136c:	429a      	cmp	r2, r3
 800136e:	bf28      	it	cs
 8001370:	461a      	movcs	r2, r3
 8001372:	68eb      	ldr	r3, [r5, #12]
 8001374:	f423 4343 	bic.w	r3, r3, #49920	; 0xc300
 8001378:	f023 03ff 	bic.w	r3, r3, #255	; 0xff
 800137c:	60eb      	str	r3, [r5, #12]
 800137e:	68eb      	ldr	r3, [r5, #12]
 8001380:	f443 4380 	orr.w	r3, r3, #16384	; 0x4000
 8001384:	4313      	orrs	r3, r2
 8001386:	60eb      	str	r3, [r5, #12]
 8001388:	f5c2 6280 	rsb	r2, r2, #1024	; 0x400
 800138c:	fbb0 f0f2 	udiv	r0, r0, r2
 8001390:	bd38      	pop	{r3, r4, r5, pc}
	...

08001394 <XMC_CAN_MO_UpdateData>:
 8001394:	7e03      	ldrb	r3, [r0, #24]
 8001396:	2b01      	cmp	r3, #1
 8001398:	d114      	bne.n	80013c4 <XMC_CAN_MO_UpdateData+0x30>
 800139a:	6803      	ldr	r3, [r0, #0]
 800139c:	2220      	movs	r2, #32
 800139e:	61da      	str	r2, [r3, #28]
 80013a0:	6803      	ldr	r3, [r0, #0]
 80013a2:	7b01      	ldrb	r1, [r0, #12]
 80013a4:	681a      	ldr	r2, [r3, #0]
 80013a6:	0609      	lsls	r1, r1, #24
 80013a8:	f001 6170 	and.w	r1, r1, #251658240	; 0xf000000
 80013ac:	f022 6270 	bic.w	r2, r2, #251658240	; 0xf000000
 80013b0:	430a      	orrs	r2, r1
 80013b2:	601a      	str	r2, [r3, #0]
 80013b4:	6902      	ldr	r2, [r0, #16]
 80013b6:	611a      	str	r2, [r3, #16]
 80013b8:	6942      	ldr	r2, [r0, #20]
 80013ba:	615a      	str	r2, [r3, #20]
 80013bc:	4a02      	ldr	r2, [pc, #8]	; (80013c8 <XMC_CAN_MO_UpdateData+0x34>)
 80013be:	61da      	str	r2, [r3, #28]
 80013c0:	2000      	movs	r0, #0
 80013c2:	4770      	bx	lr
 80013c4:	2003      	movs	r0, #3
 80013c6:	4770      	bx	lr
 80013c8:	00280040 	.word	0x00280040

080013cc <XMC_CAN_MO_Config>:
 80013cc:	6802      	ldr	r2, [r0, #0]
 80013ce:	6891      	ldr	r1, [r2, #8]
 80013d0:	f102 4338 	add.w	r3, r2, #3087007744	; 0xb8000000
 80013d4:	f421 417f 	bic.w	r1, r1, #65280	; 0xff00
 80013d8:	b510      	push	{r4, lr}
 80013da:	f5a3 33a8 	sub.w	r3, r3, #86016	; 0x15000
 80013de:	6091      	str	r1, [r2, #8]
 80013e0:	6891      	ldr	r1, [r2, #8]
 80013e2:	00db      	lsls	r3, r3, #3
 80013e4:	f023 03ff 	bic.w	r3, r3, #255	; 0xff
 80013e8:	430b      	orrs	r3, r1
 80013ea:	6093      	str	r3, [r2, #8]
 80013ec:	7e03      	ldrb	r3, [r0, #24]
 80013ee:	2b01      	cmp	r3, #1
 80013f0:	4604      	mov	r4, r0
 80013f2:	d828      	bhi.n	8001446 <XMC_CAN_MO_Config+0x7a>
 80013f4:	2320      	movs	r3, #32
 80013f6:	61d3      	str	r3, [r2, #28]
 80013f8:	79c3      	ldrb	r3, [r0, #7]
 80013fa:	6842      	ldr	r2, [r0, #4]
 80013fc:	f013 0f20 	tst.w	r3, #32
 8001400:	bf08      	it	eq
 8001402:	f002 4160 	andeq.w	r1, r2, #3758096384	; 0xe0000000
 8001406:	6803      	ldr	r3, [r0, #0]
 8001408:	bf03      	ittte	eq
 800140a:	ea41 4282 	orreq.w	r2, r1, r2, lsl #18
 800140e:	619a      	streq	r2, [r3, #24]
 8001410:	6881      	ldreq	r1, [r0, #8]
 8001412:	619a      	strne	r2, [r3, #24]
 8001414:	bf06      	itte	eq
 8001416:	f001 4260 	andeq.w	r2, r1, #3758096384	; 0xe0000000
 800141a:	ea42 4281 	orreq.w	r2, r2, r1, lsl #18
 800141e:	6882      	ldrne	r2, [r0, #8]
 8001420:	60da      	str	r2, [r3, #12]
 8001422:	7e02      	ldrb	r2, [r0, #24]
 8001424:	2a01      	cmp	r2, #1
 8001426:	d108      	bne.n	800143a <XMC_CAN_MO_Config+0x6e>
 8001428:	f7ff ffb4 	bl	8001394 <XMC_CAN_MO_UpdateData>
 800142c:	6823      	ldr	r3, [r4, #0]
 800142e:	f04f 6200 	mov.w	r2, #134217728	; 0x8000000
 8001432:	61da      	str	r2, [r3, #28]
 8001434:	6823      	ldr	r3, [r4, #0]
 8001436:	4a04      	ldr	r2, [pc, #16]	; (8001448 <XMC_CAN_MO_Config+0x7c>)
 8001438:	e004      	b.n	8001444 <XMC_CAN_MO_Config+0x78>
 800143a:	f44f 6200 	mov.w	r2, #2048	; 0x800
 800143e:	61da      	str	r2, [r3, #28]
 8001440:	6803      	ldr	r3, [r0, #0]
 8001442:	4a02      	ldr	r2, [pc, #8]	; (800144c <XMC_CAN_MO_Config+0x80>)
 8001444:	61da      	str	r2, [r3, #28]
 8001446:	bd10      	pop	{r4, pc}
 8001448:	062000c0 	.word	0x062000c0
 800144c:	00a00640 	.word	0x00a00640

08001450 <XMC_CAN_MO_Transmit>:
 8001450:	6803      	ldr	r3, [r0, #0]
 8001452:	69d9      	ldr	r1, [r3, #28]
 8001454:	69da      	ldr	r2, [r3, #28]
 8001456:	0689      	lsls	r1, r1, #26
 8001458:	d506      	bpl.n	8001468 <XMC_CAN_MO_Transmit+0x18>
 800145a:	05d2      	lsls	r2, r2, #23
 800145c:	d406      	bmi.n	800146c <XMC_CAN_MO_Transmit+0x1c>
 800145e:	f04f 62e0 	mov.w	r2, #117440512	; 0x7000000
 8001462:	61da      	str	r2, [r3, #28]
 8001464:	2000      	movs	r0, #0
 8001466:	4770      	bx	lr
 8001468:	2004      	movs	r0, #4
 800146a:	4770      	bx	lr
 800146c:	2002      	movs	r0, #2
 800146e:	4770      	bx	lr

08001470 <XMC_CAN_NODE_EnableEvent>:
 8001470:	f5b1 0f80 	cmp.w	r1, #4194304	; 0x400000
 8001474:	bf15      	itete	ne
 8001476:	6803      	ldrne	r3, [r0, #0]
 8001478:	6983      	ldreq	r3, [r0, #24]
 800147a:	4319      	orrne	r1, r3
 800147c:	f443 0380 	orreq.w	r3, r3, #4194304	; 0x400000
 8001480:	bf14      	ite	ne
 8001482:	6001      	strne	r1, [r0, #0]
 8001484:	6183      	streq	r3, [r0, #24]
 8001486:	4770      	bx	lr

08001488 <XMC_CCU4_EnableModule>:
 8001488:	b510      	push	{r4, lr}
 800148a:	4604      	mov	r4, r0
 800148c:	2010      	movs	r0, #16
 800148e:	f7ff fd09 	bl	8000ea4 <XMC_SCU_CLOCK_EnableClock>
 8001492:	4b0a      	ldr	r3, [pc, #40]	; (80014bc <XMC_CCU4_EnableModule+0x34>)
 8001494:	429c      	cmp	r4, r3
 8001496:	d104      	bne.n	80014a2 <XMC_CCU4_EnableModule+0x1a>
 8001498:	2004      	movs	r0, #4
 800149a:	f7ff fd09 	bl	8000eb0 <XMC_SCU_CLOCK_UngatePeripheralClock>
 800149e:	2004      	movs	r0, #4
 80014a0:	e006      	b.n	80014b0 <XMC_CCU4_EnableModule+0x28>
 80014a2:	4b07      	ldr	r3, [pc, #28]	; (80014c0 <XMC_CCU4_EnableModule+0x38>)
 80014a4:	429c      	cmp	r4, r3
 80014a6:	d107      	bne.n	80014b8 <XMC_CCU4_EnableModule+0x30>
 80014a8:	2008      	movs	r0, #8
 80014aa:	f7ff fd01 	bl	8000eb0 <XMC_SCU_CLOCK_UngatePeripheralClock>
 80014ae:	2008      	movs	r0, #8
 80014b0:	e8bd 4010 	ldmia.w	sp!, {r4, lr}
 80014b4:	f7ff bc48 	b.w	8000d48 <XMC_SCU_RESET_DeassertPeripheralReset>
 80014b8:	bd10      	pop	{r4, pc}
 80014ba:	bf00      	nop
 80014bc:	4000c000 	.word	0x4000c000
 80014c0:	40010000 	.word	0x40010000

080014c4 <XMC_CCU4_Init>:
 80014c4:	b538      	push	{r3, r4, r5, lr}
 80014c6:	4604      	mov	r4, r0
 80014c8:	460d      	mov	r5, r1
 80014ca:	f7ff ffdd 	bl	8001488 <XMC_CCU4_EnableModule>
 80014ce:	f44f 7380 	mov.w	r3, #256	; 0x100
 80014d2:	60e3      	str	r3, [r4, #12]
 80014d4:	6823      	ldr	r3, [r4, #0]
 80014d6:	f423 4340 	bic.w	r3, r3, #49152	; 0xc000
 80014da:	ea43 3185 	orr.w	r1, r3, r5, lsl #14
 80014de:	6021      	str	r1, [r4, #0]
 80014e0:	bd38      	pop	{r3, r4, r5, pc}

080014e2 <XMC_CCU4_SLICE_CompareInit>:
 80014e2:	680b      	ldr	r3, [r1, #0]
 80014e4:	6143      	str	r3, [r0, #20]
 80014e6:	794b      	ldrb	r3, [r1, #5]
 80014e8:	f3c3 1340 	ubfx	r3, r3, #5, #1
 80014ec:	051b      	lsls	r3, r3, #20
 80014ee:	6043      	str	r3, [r0, #4]
 80014f0:	790b      	ldrb	r3, [r1, #4]
 80014f2:	f003 030f 	and.w	r3, r3, #15
 80014f6:	6243      	str	r3, [r0, #36]	; 0x24
 80014f8:	794b      	ldrb	r3, [r1, #5]
 80014fa:	f003 030f 	and.w	r3, r3, #15
 80014fe:	6203      	str	r3, [r0, #32]
 8001500:	794b      	ldrb	r3, [r1, #5]
 8001502:	f3c3 1300 	ubfx	r3, r3, #4, #1
 8001506:	6183      	str	r3, [r0, #24]
 8001508:	790b      	ldrb	r3, [r1, #4]
 800150a:	091b      	lsrs	r3, r3, #4
 800150c:	62c3      	str	r3, [r0, #44]	; 0x2c
 800150e:	4770      	bx	lr

08001510 <XMC_CCU4_SLICE_SetInterruptNode>:
 8001510:	290b      	cmp	r1, #11
 8001512:	b510      	push	{r4, lr}
 8001514:	d80d      	bhi.n	8001532 <XMC_CCU4_SLICE_SetInterruptNode+0x22>
 8001516:	4b07      	ldr	r3, [pc, #28]	; (8001534 <XMC_CCU4_SLICE_SetInterruptNode+0x24>)
 8001518:	565c      	ldrsb	r4, [r3, r1]
 800151a:	4b07      	ldr	r3, [pc, #28]	; (8001538 <XMC_CCU4_SLICE_SetInterruptNode+0x28>)
 800151c:	f833 1011 	ldrh.w	r1, [r3, r1, lsl #1]
 8001520:	b139      	cbz	r1, 8001532 <XMC_CCU4_SLICE_SetInterruptNode+0x22>
 8001522:	f8d0 30a8 	ldr.w	r3, [r0, #168]	; 0xa8
 8001526:	40a2      	lsls	r2, r4
 8001528:	ea23 0301 	bic.w	r3, r3, r1
 800152c:	431a      	orrs	r2, r3
 800152e:	f8c0 20a8 	str.w	r2, [r0, #168]	; 0xa8
 8001532:	bd10      	pop	{r4, pc}
 8001534:	080036cb 	.word	0x080036cb
 8001538:	080036d8 	.word	0x080036d8

0800153c <XMC_ERU_ETL_Init>:
 800153c:	b570      	push	{r4, r5, r6, lr}
 800153e:	4605      	mov	r5, r0
 8001540:	460c      	mov	r4, r1
 8001542:	4616      	mov	r6, r2
 8001544:	f7ff fb98 	bl	8000c78 <XMC_ERU_Enable>
 8001548:	6828      	ldr	r0, [r5, #0]
 800154a:	00a2      	lsls	r2, r4, #2
 800154c:	230f      	movs	r3, #15
 800154e:	4093      	lsls	r3, r2
 8001550:	ea20 0103 	bic.w	r1, r0, r3
 8001554:	6833      	ldr	r3, [r6, #0]
 8001556:	4093      	lsls	r3, r2
 8001558:	430b      	orrs	r3, r1
 800155a:	602b      	str	r3, [r5, #0]
 800155c:	3404      	adds	r4, #4
 800155e:	6873      	ldr	r3, [r6, #4]
 8001560:	f845 3024 	str.w	r3, [r5, r4, lsl #2]
 8001564:	bd70      	pop	{r4, r5, r6, pc}

08001566 <XMC_ERU_OGU_SetServiceRequestMode>:
 8001566:	3108      	adds	r1, #8
 8001568:	f002 0203 	and.w	r2, r2, #3
 800156c:	f850 3021 	ldr.w	r3, [r0, r1, lsl #2]
 8001570:	f023 0330 	bic.w	r3, r3, #48	; 0x30
 8001574:	ea43 1202 	orr.w	r2, r3, r2, lsl #4
 8001578:	f840 2021 	str.w	r2, [r0, r1, lsl #2]
 800157c:	4770      	bx	lr

0800157e <XMC_GPIO_SetMode>:
 800157e:	f001 03fc 	and.w	r3, r1, #252	; 0xfc
 8001582:	4418      	add	r0, r3
 8001584:	f001 0103 	and.w	r1, r1, #3
 8001588:	b510      	push	{r4, lr}
 800158a:	00c9      	lsls	r1, r1, #3
 800158c:	6904      	ldr	r4, [r0, #16]
 800158e:	23f8      	movs	r3, #248	; 0xf8
 8001590:	408b      	lsls	r3, r1
 8001592:	ea24 0303 	bic.w	r3, r4, r3
 8001596:	6103      	str	r3, [r0, #16]
 8001598:	6903      	ldr	r3, [r0, #16]
 800159a:	408a      	lsls	r2, r1
 800159c:	4313      	orrs	r3, r2
 800159e:	6103      	str	r3, [r0, #16]
 80015a0:	bd10      	pop	{r4, pc}

080015a2 <XMC_GPIO_SetHardwareControl>:
 80015a2:	6f43      	ldr	r3, [r0, #116]	; 0x74
 80015a4:	0049      	lsls	r1, r1, #1
 80015a6:	b510      	push	{r4, lr}
 80015a8:	2403      	movs	r4, #3
 80015aa:	408c      	lsls	r4, r1
 80015ac:	ea23 0304 	bic.w	r3, r3, r4
 80015b0:	6743      	str	r3, [r0, #116]	; 0x74
 80015b2:	6f43      	ldr	r3, [r0, #116]	; 0x74
 80015b4:	408a      	lsls	r2, r1
 80015b6:	4313      	orrs	r3, r2
 80015b8:	6743      	str	r3, [r0, #116]	; 0x74
 80015ba:	bd10      	pop	{r4, pc}

080015bc <XMC_I2C_CH_SetSlaveAddress>:
 80015bc:	f401 43f8 	and.w	r3, r1, #31744	; 0x7c00
 80015c0:	f5b3 4ff0 	cmp.w	r3, #30720	; 0x7800
 80015c4:	bf0c      	ite	eq
 80015c6:	6bc2      	ldreq	r2, [r0, #60]	; 0x3c
 80015c8:	6bc3      	ldrne	r3, [r0, #60]	; 0x3c
 80015ca:	b510      	push	{r4, lr}
 80015cc:	bf01      	itttt	eq
 80015ce:	0c13      	lsreq	r3, r2, #16
 80015d0:	b2cc      	uxtbeq	r4, r1
 80015d2:	041b      	lsleq	r3, r3, #16
 80015d4:	0049      	lsleq	r1, r1, #1
 80015d6:	bf13      	iteet	ne
 80015d8:	0c1b      	lsrne	r3, r3, #16
 80015da:	f401 417e 	andeq.w	r1, r1, #65024	; 0xfe00
 80015de:	4323      	orreq	r3, r4
 80015e0:	041b      	lslne	r3, r3, #16
 80015e2:	bf0c      	ite	eq
 80015e4:	4319      	orreq	r1, r3
 80015e6:	ea43 2101 	orrne.w	r1, r3, r1, lsl #8
 80015ea:	63c1      	str	r1, [r0, #60]	; 0x3c
 80015ec:	bd10      	pop	{r4, pc}
	...

080015f0 <XMC_I2C_CH_SetBaudrateEx>:
 80015f0:	b530      	push	{r4, r5, lr}
 80015f2:	4d10      	ldr	r5, [pc, #64]	; (8001634 <XMC_I2C_CH_SetBaudrateEx+0x44>)
 80015f4:	42a9      	cmp	r1, r5
 80015f6:	d808      	bhi.n	800160a <XMC_I2C_CH_SetBaudrateEx+0x1a>
 80015f8:	6bc4      	ldr	r4, [r0, #60]	; 0x3c
 80015fa:	f424 3400 	bic.w	r4, r4, #131072	; 0x20000
 80015fe:	63c4      	str	r4, [r0, #60]	; 0x3c
 8001600:	b10a      	cbz	r2, 8001606 <XMC_I2C_CH_SetBaudrateEx+0x16>
 8001602:	220a      	movs	r2, #10
 8001604:	e00a      	b.n	800161c <XMC_I2C_CH_SetBaudrateEx+0x2c>
 8001606:	220a      	movs	r2, #10
 8001608:	e00d      	b.n	8001626 <XMC_I2C_CH_SetBaudrateEx+0x36>
 800160a:	4d0b      	ldr	r5, [pc, #44]	; (8001638 <XMC_I2C_CH_SetBaudrateEx+0x48>)
 800160c:	42a9      	cmp	r1, r5
 800160e:	d80e      	bhi.n	800162e <XMC_I2C_CH_SetBaudrateEx+0x3e>
 8001610:	6bc4      	ldr	r4, [r0, #60]	; 0x3c
 8001612:	f444 3400 	orr.w	r4, r4, #131072	; 0x20000
 8001616:	63c4      	str	r4, [r0, #60]	; 0x3c
 8001618:	b122      	cbz	r2, 8001624 <XMC_I2C_CH_SetBaudrateEx+0x34>
 800161a:	2219      	movs	r2, #25
 800161c:	e8bd 4030 	ldmia.w	sp!, {r4, r5, lr}
 8001620:	f000 b962 	b.w	80018e8 <XMC_USIC_CH_SetBaudrateEx>
 8001624:	2219      	movs	r2, #25
 8001626:	e8bd 4030 	ldmia.w	sp!, {r4, r5, lr}
 800162a:	f000 b91d 	b.w	8001868 <XMC_USIC_CH_SetBaudrate>
 800162e:	2001      	movs	r0, #1
 8001630:	bd30      	pop	{r4, r5, pc}
 8001632:	bf00      	nop
 8001634:	000186a0 	.word	0x000186a0
 8001638:	00061a80 	.word	0x00061a80

0800163c <XMC_I2C_CH_InitEx>:
 800163c:	b570      	push	{r4, r5, r6, lr}
 800163e:	4604      	mov	r4, r0
 8001640:	460d      	mov	r5, r1
 8001642:	4616      	mov	r6, r2
 8001644:	f000 fa14 	bl	8001a70 <XMC_USIC_CH_Enable>
 8001648:	4b0a      	ldr	r3, [pc, #40]	; (8001674 <XMC_I2C_CH_InitEx+0x38>)
 800164a:	6363      	str	r3, [r4, #52]	; 0x34
 800164c:	4620      	mov	r0, r4
 800164e:	88e9      	ldrh	r1, [r5, #6]
 8001650:	f7ff ffb4 	bl	80015bc <XMC_I2C_CH_SetSlaveAddress>
 8001654:	b126      	cbz	r6, 8001660 <XMC_I2C_CH_InitEx+0x24>
 8001656:	4620      	mov	r0, r4
 8001658:	6829      	ldr	r1, [r5, #0]
 800165a:	792a      	ldrb	r2, [r5, #4]
 800165c:	f7ff ffc8 	bl	80015f0 <XMC_I2C_CH_SetBaudrateEx>
 8001660:	f44f 63a0 	mov.w	r3, #1280	; 0x500
 8001664:	63a3      	str	r3, [r4, #56]	; 0x38
 8001666:	f04f 33ff 	mov.w	r3, #4294967295
 800166a:	64e3      	str	r3, [r4, #76]	; 0x4c
 800166c:	2300      	movs	r3, #0
 800166e:	6423      	str	r3, [r4, #64]	; 0x40
 8001670:	bd70      	pop	{r4, r5, r6, pc}
 8001672:	bf00      	nop
 8001674:	073f0303 	.word	0x073f0303

08001678 <XMC_I2C_CH_MasterStart>:
 8001678:	f8d0 3108 	ldr.w	r3, [r0, #264]	; 0x108
 800167c:	2a01      	cmp	r2, #1
 800167e:	f441 6180 	orr.w	r1, r1, #1024	; 0x400
 8001682:	bf08      	it	eq
 8001684:	f041 0101 	orreq.w	r1, r1, #1
 8001688:	f013 6fe0 	tst.w	r3, #117440512	; 0x7000000
 800168c:	d109      	bne.n	80016a2 <XMC_I2C_CH_MasterStart+0x2a>
 800168e:	6b83      	ldr	r3, [r0, #56]	; 0x38
 8001690:	061b      	lsls	r3, r3, #24
 8001692:	d4fc      	bmi.n	800168e <XMC_I2C_CH_MasterStart+0x16>
 8001694:	6cc3      	ldr	r3, [r0, #76]	; 0x4c
 8001696:	f443 5300 	orr.w	r3, r3, #8192	; 0x2000
 800169a:	64c3      	str	r3, [r0, #76]	; 0x4c
 800169c:	f8c0 1080 	str.w	r1, [r0, #128]	; 0x80
 80016a0:	4770      	bx	lr
 80016a2:	f8c0 1180 	str.w	r1, [r0, #384]	; 0x180
 80016a6:	4770      	bx	lr

080016a8 <XMC_I2C_CH_MasterRepeatedStart>:
 80016a8:	f8d0 3108 	ldr.w	r3, [r0, #264]	; 0x108
 80016ac:	2a01      	cmp	r2, #1
 80016ae:	f441 61a0 	orr.w	r1, r1, #1280	; 0x500
 80016b2:	bf08      	it	eq
 80016b4:	f041 0101 	orreq.w	r1, r1, #1
 80016b8:	f013 6fe0 	tst.w	r3, #117440512	; 0x7000000
 80016bc:	d109      	bne.n	80016d2 <XMC_I2C_CH_MasterRepeatedStart+0x2a>
 80016be:	6b83      	ldr	r3, [r0, #56]	; 0x38
 80016c0:	061b      	lsls	r3, r3, #24
 80016c2:	d4fc      	bmi.n	80016be <XMC_I2C_CH_MasterRepeatedStart+0x16>
 80016c4:	6cc3      	ldr	r3, [r0, #76]	; 0x4c
 80016c6:	f443 5300 	orr.w	r3, r3, #8192	; 0x2000
 80016ca:	64c3      	str	r3, [r0, #76]	; 0x4c
 80016cc:	f8c0 1080 	str.w	r1, [r0, #128]	; 0x80
 80016d0:	4770      	bx	lr
 80016d2:	f8c0 1180 	str.w	r1, [r0, #384]	; 0x180
 80016d6:	4770      	bx	lr

080016d8 <XMC_I2C_CH_MasterStop>:
 80016d8:	f8d0 3108 	ldr.w	r3, [r0, #264]	; 0x108
 80016dc:	f013 6fe0 	tst.w	r3, #117440512	; 0x7000000
 80016e0:	d10b      	bne.n	80016fa <XMC_I2C_CH_MasterStop+0x22>
 80016e2:	6b83      	ldr	r3, [r0, #56]	; 0x38
 80016e4:	061b      	lsls	r3, r3, #24
 80016e6:	d4fc      	bmi.n	80016e2 <XMC_I2C_CH_MasterStop+0xa>
 80016e8:	6cc3      	ldr	r3, [r0, #76]	; 0x4c
 80016ea:	f443 5300 	orr.w	r3, r3, #8192	; 0x2000
 80016ee:	64c3      	str	r3, [r0, #76]	; 0x4c
 80016f0:	f44f 63c0 	mov.w	r3, #1536	; 0x600
 80016f4:	f8c0 3080 	str.w	r3, [r0, #128]	; 0x80
 80016f8:	4770      	bx	lr
 80016fa:	f44f 63c0 	mov.w	r3, #1536	; 0x600
 80016fe:	f8c0 3180 	str.w	r3, [r0, #384]	; 0x180
 8001702:	4770      	bx	lr

08001704 <XMC_I2C_CH_MasterTransmit>:
 8001704:	f8d0 3108 	ldr.w	r3, [r0, #264]	; 0x108
 8001708:	f013 6fe0 	tst.w	r3, #117440512	; 0x7000000
 800170c:	d109      	bne.n	8001722 <XMC_I2C_CH_MasterTransmit+0x1e>
 800170e:	6b83      	ldr	r3, [r0, #56]	; 0x38
 8001710:	061b      	lsls	r3, r3, #24
 8001712:	d4fc      	bmi.n	800170e <XMC_I2C_CH_MasterTransmit+0xa>
 8001714:	6cc3      	ldr	r3, [r0, #76]	; 0x4c
 8001716:	f443 5300 	orr.w	r3, r3, #8192	; 0x2000
 800171a:	64c3      	str	r3, [r0, #76]	; 0x4c
 800171c:	f8c0 1080 	str.w	r1, [r0, #128]	; 0x80
 8001720:	4770      	bx	lr
 8001722:	f8c0 1180 	str.w	r1, [r0, #384]	; 0x180
 8001726:	4770      	bx	lr

08001728 <XMC_I2C_CH_MasterReceiveAck>:
 8001728:	f8d0 3108 	ldr.w	r3, [r0, #264]	; 0x108
 800172c:	f013 6fe0 	tst.w	r3, #117440512	; 0x7000000
 8001730:	d10b      	bne.n	800174a <XMC_I2C_CH_MasterReceiveAck+0x22>
 8001732:	6b83      	ldr	r3, [r0, #56]	; 0x38
 8001734:	061b      	lsls	r3, r3, #24
 8001736:	d4fc      	bmi.n	8001732 <XMC_I2C_CH_MasterReceiveAck+0xa>
 8001738:	6cc3      	ldr	r3, [r0, #76]	; 0x4c
 800173a:	f443 5300 	orr.w	r3, r3, #8192	; 0x2000
 800173e:	64c3      	str	r3, [r0, #76]	; 0x4c
 8001740:	f44f 7300 	mov.w	r3, #512	; 0x200
 8001744:	f8c0 3080 	str.w	r3, [r0, #128]	; 0x80
 8001748:	4770      	bx	lr
 800174a:	f44f 7300 	mov.w	r3, #512	; 0x200
 800174e:	f8c0 3180 	str.w	r3, [r0, #384]	; 0x180
 8001752:	4770      	bx	lr

08001754 <XMC_I2C_CH_MasterReceiveNack>:
 8001754:	f8d0 3108 	ldr.w	r3, [r0, #264]	; 0x108
 8001758:	f013 6fe0 	tst.w	r3, #117440512	; 0x7000000
 800175c:	d10b      	bne.n	8001776 <XMC_I2C_CH_MasterReceiveNack+0x22>
 800175e:	6b83      	ldr	r3, [r0, #56]	; 0x38
 8001760:	061b      	lsls	r3, r3, #24
 8001762:	d4fc      	bmi.n	800175e <XMC_I2C_CH_MasterReceiveNack+0xa>
 8001764:	6cc3      	ldr	r3, [r0, #76]	; 0x4c
 8001766:	f443 5300 	orr.w	r3, r3, #8192	; 0x2000
 800176a:	64c3      	str	r3, [r0, #76]	; 0x4c
 800176c:	f44f 7340 	mov.w	r3, #768	; 0x300
 8001770:	f8c0 3080 	str.w	r3, [r0, #128]	; 0x80
 8001774:	4770      	bx	lr
 8001776:	f44f 7340 	mov.w	r3, #768	; 0x300
 800177a:	f8c0 3180 	str.w	r3, [r0, #384]	; 0x180
 800177e:	4770      	bx	lr

08001780 <XMC_I2C_CH_GetReceivedData>:
 8001780:	f8d0 310c 	ldr.w	r3, [r0, #268]	; 0x10c
 8001784:	f013 6fe0 	tst.w	r3, #117440512	; 0x7000000
 8001788:	bf0c      	ite	eq
 800178a:	6d40      	ldreq	r0, [r0, #84]	; 0x54
 800178c:	f8d0 011c 	ldrne.w	r0, [r0, #284]	; 0x11c
 8001790:	b2c0      	uxtb	r0, r0
 8001792:	4770      	bx	lr

08001794 <XMC_UART_CH_InitEx>:
 8001794:	b5f8      	push	{r3, r4, r5, r6, r7, lr}
 8001796:	460e      	mov	r6, r1
 8001798:	4604      	mov	r4, r0
 800179a:	4617      	mov	r7, r2
 800179c:	f000 f968 	bl	8001a70 <XMC_USIC_CH_Enable>
 80017a0:	7a35      	ldrb	r5, [r6, #8]
 80017a2:	2d00      	cmp	r5, #0
 80017a4:	bf08      	it	eq
 80017a6:	2510      	moveq	r5, #16
 80017a8:	b14f      	cbz	r7, 80017be <XMC_UART_CH_InitEx+0x2a>
 80017aa:	7933      	ldrb	r3, [r6, #4]
 80017ac:	6831      	ldr	r1, [r6, #0]
 80017ae:	4620      	mov	r0, r4
 80017b0:	462a      	mov	r2, r5
 80017b2:	b113      	cbz	r3, 80017ba <XMC_UART_CH_InitEx+0x26>
 80017b4:	f000 f898 	bl	80018e8 <XMC_USIC_CH_SetBaudrateEx>
 80017b8:	e001      	b.n	80017be <XMC_UART_CH_InitEx+0x2a>
 80017ba:	f000 f855 	bl	8001868 <XMC_USIC_CH_SetBaudrate>
 80017be:	79f3      	ldrb	r3, [r6, #7]
 80017c0:	3b01      	subs	r3, #1
 80017c2:	005b      	lsls	r3, r3, #1
 80017c4:	f443 3340 	orr.w	r3, r3, #196608	; 0x30000
 80017c8:	086d      	lsrs	r5, r5, #1
 80017ca:	f043 0301 	orr.w	r3, r3, #1
 80017ce:	3501      	adds	r5, #1
 80017d0:	ea43 2305 	orr.w	r3, r3, r5, lsl #8
 80017d4:	63e3      	str	r3, [r4, #60]	; 0x3c
 80017d6:	7973      	ldrb	r3, [r6, #5]
 80017d8:	3b01      	subs	r3, #1
 80017da:	061b      	lsls	r3, r3, #24
 80017dc:	f443 7381 	orr.w	r3, r3, #258	; 0x102
 80017e0:	6363      	str	r3, [r4, #52]	; 0x34
 80017e2:	79b3      	ldrb	r3, [r6, #6]
 80017e4:	6b62      	ldr	r2, [r4, #52]	; 0x34
 80017e6:	b903      	cbnz	r3, 80017ea <XMC_UART_CH_InitEx+0x56>
 80017e8:	7973      	ldrb	r3, [r6, #5]
 80017ea:	3b01      	subs	r3, #1
 80017ec:	ea42 4303 	orr.w	r3, r2, r3, lsl #16
 80017f0:	6363      	str	r3, [r4, #52]	; 0x34
 80017f2:	f44f 63a0 	mov.w	r3, #1280	; 0x500
 80017f6:	63a3      	str	r3, [r4, #56]	; 0x38
 80017f8:	f04f 33ff 	mov.w	r3, #4294967295
 80017fc:	64e3      	str	r3, [r4, #76]	; 0x4c
 80017fe:	8973      	ldrh	r3, [r6, #10]
 8001800:	6423      	str	r3, [r4, #64]	; 0x40
 8001802:	bdf8      	pop	{r3, r4, r5, r6, r7, pc}

08001804 <XMC_UART_CH_Transmit>:
 8001804:	f8d0 3108 	ldr.w	r3, [r0, #264]	; 0x108
 8001808:	f013 6fe0 	tst.w	r3, #117440512	; 0x7000000
 800180c:	d108      	bne.n	8001820 <XMC_UART_CH_Transmit+0x1c>
 800180e:	6b83      	ldr	r3, [r0, #56]	; 0x38
 8001810:	061b      	lsls	r3, r3, #24
 8001812:	d4fc      	bmi.n	800180e <XMC_UART_CH_Transmit+0xa>
 8001814:	f44f 5300 	mov.w	r3, #8192	; 0x2000
 8001818:	64c3      	str	r3, [r0, #76]	; 0x4c
 800181a:	f8c0 1080 	str.w	r1, [r0, #128]	; 0x80
 800181e:	4770      	bx	lr
 8001820:	f8c0 1180 	str.w	r1, [r0, #384]	; 0x180
 8001824:	4770      	bx	lr

08001826 <XMC_UART_CH_GetReceivedData>:
 8001826:	f8d0 310c 	ldr.w	r3, [r0, #268]	; 0x10c
 800182a:	f013 6fe0 	tst.w	r3, #117440512	; 0x7000000
 800182e:	bf0c      	ite	eq
 8001830:	6d40      	ldreq	r0, [r0, #84]	; 0x54
 8001832:	f8d0 011c 	ldrne.w	r0, [r0, #284]	; 0x11c
 8001836:	b280      	uxth	r0, r0
 8001838:	4770      	bx	lr

0800183a <XMC_USIC_Enable.part.0>:
 800183a:	b508      	push	{r3, lr}
 800183c:	f44f 6000 	mov.w	r0, #2048	; 0x800
 8001840:	f7ff fb36 	bl	8000eb0 <XMC_SCU_CLOCK_UngatePeripheralClock>
 8001844:	f44f 6000 	mov.w	r0, #2048	; 0x800
 8001848:	f7ff fb3c 	bl	8000ec4 <XMC_SCU_CLOCK_IsPeripheralClockGated>
 800184c:	2800      	cmp	r0, #0
 800184e:	d1f9      	bne.n	8001844 <XMC_USIC_Enable.part.0+0xa>
 8001850:	f44f 6000 	mov.w	r0, #2048	; 0x800
 8001854:	f7ff fa78 	bl	8000d48 <XMC_SCU_RESET_DeassertPeripheralReset>
 8001858:	f44f 6000 	mov.w	r0, #2048	; 0x800
 800185c:	f7ff fa7e 	bl	8000d5c <XMC_SCU_RESET_IsPeripheralResetAsserted>
 8001860:	2800      	cmp	r0, #0
 8001862:	d1f9      	bne.n	8001858 <XMC_USIC_Enable.part.0+0x1e>
 8001864:	bd08      	pop	{r3, pc}
	...

08001868 <XMC_USIC_CH_SetBaudrate>:
 8001868:	2963      	cmp	r1, #99	; 0x63
 800186a:	e92d 41f0 	stmdb	sp!, {r4, r5, r6, r7, r8, lr}
 800186e:	4605      	mov	r5, r0
 8001870:	460c      	mov	r4, r1
 8001872:	4616      	mov	r6, r2
 8001874:	d932      	bls.n	80018dc <XMC_USIC_CH_SetBaudrate+0x74>
 8001876:	b38a      	cbz	r2, 80018dc <XMC_USIC_CH_SetBaudrate+0x74>
 8001878:	f7ff fa7e 	bl	8000d78 <XMC_SCU_CLOCK_GetPeripheralClockFrequency>
 800187c:	2164      	movs	r1, #100	; 0x64
 800187e:	fbb0 fef1 	udiv	lr, r0, r1
 8001882:	fbb4 f1f1 	udiv	r1, r4, r1
 8001886:	f44f 6480 	mov.w	r4, #1024	; 0x400
 800188a:	4371      	muls	r1, r6
 800188c:	ea4f 238e 	mov.w	r3, lr, lsl #10
 8001890:	f240 3cff 	movw	ip, #1023	; 0x3ff
 8001894:	2701      	movs	r7, #1
 8001896:	4620      	mov	r0, r4
 8001898:	fbb3 f2f1 	udiv	r2, r3, r1
 800189c:	ea4f 2892 	mov.w	r8, r2, lsr #10
 80018a0:	f5b8 6f80 	cmp.w	r8, #1024	; 0x400
 80018a4:	d806      	bhi.n	80018b4 <XMC_USIC_CH_SetBaudrate+0x4c>
 80018a6:	f3c2 0209 	ubfx	r2, r2, #0, #10
 80018aa:	4562      	cmp	r2, ip
 80018ac:	bf3e      	ittt	cc
 80018ae:	4694      	movcc	ip, r2
 80018b0:	4647      	movcc	r7, r8
 80018b2:	4604      	movcc	r4, r0
 80018b4:	3801      	subs	r0, #1
 80018b6:	ebce 0303 	rsb	r3, lr, r3
 80018ba:	d1ed      	bne.n	8001898 <XMC_USIC_CH_SetBaudrate+0x30>
 80018bc:	3c01      	subs	r4, #1
 80018be:	f444 4400 	orr.w	r4, r4, #32768	; 0x8000
 80018c2:	612c      	str	r4, [r5, #16]
 80018c4:	696a      	ldr	r2, [r5, #20]
 80018c6:	4b07      	ldr	r3, [pc, #28]	; (80018e4 <XMC_USIC_CH_SetBaudrate+0x7c>)
 80018c8:	3e01      	subs	r6, #1
 80018ca:	4013      	ands	r3, r2
 80018cc:	ea43 2386 	orr.w	r3, r3, r6, lsl #10
 80018d0:	3f01      	subs	r7, #1
 80018d2:	ea43 4307 	orr.w	r3, r3, r7, lsl #16
 80018d6:	616b      	str	r3, [r5, #20]
 80018d8:	e8bd 81f0 	ldmia.w	sp!, {r4, r5, r6, r7, r8, pc}
 80018dc:	2001      	movs	r0, #1
 80018de:	e8bd 81f0 	ldmia.w	sp!, {r4, r5, r6, r7, r8, pc}
 80018e2:	bf00      	nop
 80018e4:	fc0080ef 	.word	0xfc0080ef

080018e8 <XMC_USIC_CH_SetBaudrateEx>:
 80018e8:	e92d 41f0 	stmdb	sp!, {r4, r5, r6, r7, r8, lr}
 80018ec:	460f      	mov	r7, r1
 80018ee:	4690      	mov	r8, r2
 80018f0:	4605      	mov	r5, r0
 80018f2:	f7ff fa41 	bl	8000d78 <XMC_SCU_CLOCK_GetPeripheralClockFrequency>
 80018f6:	fb08 f207 	mul.w	r2, r8, r7
 80018fa:	4290      	cmp	r0, r2
 80018fc:	dd37      	ble.n	800196e <XMC_USIC_CH_SetBaudrateEx+0x86>
 80018fe:	fb90 f3f2 	sdiv	r3, r0, r2
 8001902:	0051      	lsls	r1, r2, #1
 8001904:	2601      	movs	r6, #1
 8001906:	f240 34fe 	movw	r4, #1022	; 0x3fe
 800190a:	42a3      	cmp	r3, r4
 800190c:	d904      	bls.n	8001918 <XMC_USIC_CH_SetBaudrateEx+0x30>
 800190e:	fb90 f3f1 	sdiv	r3, r0, r1
 8001912:	3601      	adds	r6, #1
 8001914:	4411      	add	r1, r2
 8001916:	e7f6      	b.n	8001906 <XMC_USIC_CH_SetBaudrateEx+0x1e>
 8001918:	1c5a      	adds	r2, r3, #1
 800191a:	fb08 f406 	mul.w	r4, r8, r6
 800191e:	fb06 f103 	mul.w	r1, r6, r3
 8001922:	4354      	muls	r4, r2
 8001924:	fbb0 f4f4 	udiv	r4, r0, r4
 8001928:	1b3c      	subs	r4, r7, r4
 800192a:	2c00      	cmp	r4, #0
 800192c:	fb08 f101 	mul.w	r1, r8, r1
 8001930:	fbb0 f0f1 	udiv	r0, r0, r1
 8001934:	eba7 0700 	sub.w	r7, r7, r0
 8001938:	bfb8      	it	lt
 800193a:	4264      	neglt	r4, r4
 800193c:	2f00      	cmp	r7, #0
 800193e:	bfb8      	it	lt
 8001940:	427f      	neglt	r7, r7
 8001942:	42bc      	cmp	r4, r7
 8001944:	bfb8      	it	lt
 8001946:	4613      	movlt	r3, r2
 8001948:	f5c3 6380 	rsb	r3, r3, #1024	; 0x400
 800194c:	f443 4380 	orr.w	r3, r3, #16384	; 0x4000
 8001950:	612b      	str	r3, [r5, #16]
 8001952:	696a      	ldr	r2, [r5, #20]
 8001954:	4b07      	ldr	r3, [pc, #28]	; (8001974 <XMC_USIC_CH_SetBaudrateEx+0x8c>)
 8001956:	f108 38ff 	add.w	r8, r8, #4294967295
 800195a:	4013      	ands	r3, r2
 800195c:	ea43 2388 	orr.w	r3, r3, r8, lsl #10
 8001960:	3e01      	subs	r6, #1
 8001962:	ea43 4306 	orr.w	r3, r3, r6, lsl #16
 8001966:	616b      	str	r3, [r5, #20]
 8001968:	2000      	movs	r0, #0
 800196a:	e8bd 81f0 	ldmia.w	sp!, {r4, r5, r6, r7, r8, pc}
 800196e:	2001      	movs	r0, #1
 8001970:	e8bd 81f0 	ldmia.w	sp!, {r4, r5, r6, r7, r8, pc}
 8001974:	fc0080ef 	.word	0xfc0080ef

08001978 <XMC_USIC_CH_TXFIFO_Configure>:
 8001978:	b530      	push	{r4, r5, lr}
 800197a:	f8d0 4108 	ldr.w	r4, [r0, #264]	; 0x108
 800197e:	f024 64e0 	bic.w	r4, r4, #117440512	; 0x7000000
 8001982:	f8c0 4108 	str.w	r4, [r0, #264]	; 0x108
 8001986:	f8d0 5108 	ldr.w	r5, [r0, #264]	; 0x108
 800198a:	4c05      	ldr	r4, [pc, #20]	; (80019a0 <XMC_USIC_CH_TXFIFO_Configure+0x28>)
 800198c:	402c      	ands	r4, r5
 800198e:	4321      	orrs	r1, r4
 8001990:	ea41 6202 	orr.w	r2, r1, r2, lsl #24
 8001994:	ea42 2303 	orr.w	r3, r2, r3, lsl #8
 8001998:	f8c0 3108 	str.w	r3, [r0, #264]	; 0x108
 800199c:	bd30      	pop	{r4, r5, pc}
 800199e:	bf00      	nop
 80019a0:	f8ffc0c0 	.word	0xf8ffc0c0

080019a4 <XMC_USIC_CH_RXFIFO_Configure>:
 80019a4:	b530      	push	{r4, r5, lr}
 80019a6:	f8d0 410c 	ldr.w	r4, [r0, #268]	; 0x10c
 80019aa:	f024 64e0 	bic.w	r4, r4, #117440512	; 0x7000000
 80019ae:	f8c0 410c 	str.w	r4, [r0, #268]	; 0x10c
 80019b2:	f8d0 510c 	ldr.w	r5, [r0, #268]	; 0x10c
 80019b6:	4c06      	ldr	r4, [pc, #24]	; (80019d0 <XMC_USIC_CH_RXFIFO_Configure+0x2c>)
 80019b8:	402c      	ands	r4, r5
 80019ba:	f044 5480 	orr.w	r4, r4, #268435456	; 0x10000000
 80019be:	4321      	orrs	r1, r4
 80019c0:	ea41 6202 	orr.w	r2, r1, r2, lsl #24
 80019c4:	ea42 2303 	orr.w	r3, r2, r3, lsl #8
 80019c8:	f8c0 310c 	str.w	r3, [r0, #268]	; 0x10c
 80019cc:	bd30      	pop	{r4, r5, pc}
 80019ce:	bf00      	nop
 80019d0:	efffc0c0 	.word	0xefffc0c0

080019d4 <XMC_USIC_CH_RXFIFO_SetSizeTriggerLimit>:
 80019d4:	f8d0 310c 	ldr.w	r3, [r0, #268]	; 0x10c
 80019d8:	f423 537c 	bic.w	r3, r3, #16128	; 0x3f00
 80019dc:	ea43 2202 	orr.w	r2, r3, r2, lsl #8
 80019e0:	f8c0 210c 	str.w	r2, [r0, #268]	; 0x10c
 80019e4:	4770      	bx	lr

080019e6 <XMC_USIC_CH_SetInterruptNodePointer>:
 80019e6:	b510      	push	{r4, lr}
 80019e8:	2307      	movs	r3, #7
 80019ea:	6984      	ldr	r4, [r0, #24]
 80019ec:	408b      	lsls	r3, r1
 80019ee:	ea24 0303 	bic.w	r3, r4, r3
 80019f2:	408a      	lsls	r2, r1
 80019f4:	431a      	orrs	r2, r3
 80019f6:	6182      	str	r2, [r0, #24]
 80019f8:	bd10      	pop	{r4, pc}

080019fa <XMC_USIC_CH_TXFIFO_SetInterruptNodePointer>:
 80019fa:	b510      	push	{r4, lr}
 80019fc:	2307      	movs	r3, #7
 80019fe:	f8d0 4108 	ldr.w	r4, [r0, #264]	; 0x108
 8001a02:	408b      	lsls	r3, r1
 8001a04:	ea24 0303 	bic.w	r3, r4, r3
 8001a08:	408a      	lsls	r2, r1
 8001a0a:	431a      	orrs	r2, r3
 8001a0c:	f8c0 2108 	str.w	r2, [r0, #264]	; 0x108
 8001a10:	bd10      	pop	{r4, pc}

08001a12 <XMC_USIC_CH_RXFIFO_SetInterruptNodePointer>:
 8001a12:	b510      	push	{r4, lr}
 8001a14:	2307      	movs	r3, #7
 8001a16:	f8d0 410c 	ldr.w	r4, [r0, #268]	; 0x10c
 8001a1a:	408b      	lsls	r3, r1
 8001a1c:	ea24 0303 	bic.w	r3, r4, r3
 8001a20:	408a      	lsls	r2, r1
 8001a22:	431a      	orrs	r2, r3
 8001a24:	f8c0 210c 	str.w	r2, [r0, #268]	; 0x10c
 8001a28:	bd10      	pop	{r4, pc}
	...

08001a2c <XMC_USIC_Enable>:
 8001a2c:	b508      	push	{r3, lr}
 8001a2e:	4b0d      	ldr	r3, [pc, #52]	; (8001a64 <XMC_USIC_Enable+0x38>)
 8001a30:	4298      	cmp	r0, r3
 8001a32:	d103      	bne.n	8001a3c <XMC_USIC_Enable+0x10>
 8001a34:	e8bd 4008 	ldmia.w	sp!, {r3, lr}
 8001a38:	f7ff beff 	b.w	800183a <XMC_USIC_Enable.part.0>
 8001a3c:	4b0a      	ldr	r3, [pc, #40]	; (8001a68 <XMC_USIC_Enable+0x3c>)
 8001a3e:	4298      	cmp	r0, r3
 8001a40:	d10f      	bne.n	8001a62 <XMC_USIC_Enable+0x36>
 8001a42:	480a      	ldr	r0, [pc, #40]	; (8001a6c <XMC_USIC_Enable+0x40>)
 8001a44:	f7ff fa34 	bl	8000eb0 <XMC_SCU_CLOCK_UngatePeripheralClock>
 8001a48:	4808      	ldr	r0, [pc, #32]	; (8001a6c <XMC_USIC_Enable+0x40>)
 8001a4a:	f7ff fa3b 	bl	8000ec4 <XMC_SCU_CLOCK_IsPeripheralClockGated>
 8001a4e:	2800      	cmp	r0, #0
 8001a50:	d1fa      	bne.n	8001a48 <XMC_USIC_Enable+0x1c>
 8001a52:	4806      	ldr	r0, [pc, #24]	; (8001a6c <XMC_USIC_Enable+0x40>)
 8001a54:	f7ff f978 	bl	8000d48 <XMC_SCU_RESET_DeassertPeripheralReset>
 8001a58:	4804      	ldr	r0, [pc, #16]	; (8001a6c <XMC_USIC_Enable+0x40>)
 8001a5a:	f7ff f97f 	bl	8000d5c <XMC_SCU_RESET_IsPeripheralResetAsserted>
 8001a5e:	2800      	cmp	r0, #0
 8001a60:	d1fa      	bne.n	8001a58 <XMC_USIC_Enable+0x2c>
 8001a62:	bd08      	pop	{r3, pc}
 8001a64:	40030008 	.word	0x40030008
 8001a68:	48020008 	.word	0x48020008
 8001a6c:	10000080 	.word	0x10000080

08001a70 <XMC_USIC_CH_Enable>:
 8001a70:	4b0f      	ldr	r3, [pc, #60]	; (8001ab0 <XMC_USIC_CH_Enable+0x40>)
 8001a72:	4298      	cmp	r0, r3
 8001a74:	b510      	push	{r4, lr}
 8001a76:	4604      	mov	r4, r0
 8001a78:	d003      	beq.n	8001a82 <XMC_USIC_CH_Enable+0x12>
 8001a7a:	f503 7300 	add.w	r3, r3, #512	; 0x200
 8001a7e:	4298      	cmp	r0, r3
 8001a80:	d102      	bne.n	8001a88 <XMC_USIC_CH_Enable+0x18>
 8001a82:	f7ff feda 	bl	800183a <XMC_USIC_Enable.part.0>
 8001a86:	e009      	b.n	8001a9c <XMC_USIC_CH_Enable+0x2c>
 8001a88:	4b0a      	ldr	r3, [pc, #40]	; (8001ab4 <XMC_USIC_CH_Enable+0x44>)
 8001a8a:	4298      	cmp	r0, r3
 8001a8c:	d003      	beq.n	8001a96 <XMC_USIC_CH_Enable+0x26>
 8001a8e:	f503 7300 	add.w	r3, r3, #512	; 0x200
 8001a92:	4298      	cmp	r0, r3
 8001a94:	d102      	bne.n	8001a9c <XMC_USIC_CH_Enable+0x2c>
 8001a96:	4808      	ldr	r0, [pc, #32]	; (8001ab8 <XMC_USIC_CH_Enable+0x48>)
 8001a98:	f7ff ffc8 	bl	8001a2c <XMC_USIC_Enable>
 8001a9c:	2303      	movs	r3, #3
 8001a9e:	60e3      	str	r3, [r4, #12]
 8001aa0:	68e3      	ldr	r3, [r4, #12]
 8001aa2:	07db      	lsls	r3, r3, #31
 8001aa4:	d5fc      	bpl.n	8001aa0 <XMC_USIC_CH_Enable+0x30>
 8001aa6:	6c23      	ldr	r3, [r4, #64]	; 0x40
 8001aa8:	f023 030f 	bic.w	r3, r3, #15
 8001aac:	6423      	str	r3, [r4, #64]	; 0x40
 8001aae:	bd10      	pop	{r4, pc}
 8001ab0:	40030000 	.word	0x40030000
 8001ab4:	48020000 	.word	0x48020000
 8001ab8:	48020008 	.word	0x48020008

08001abc <XMC_VADC_GLOBAL_EnableModule>:
 8001abc:	b508      	push	{r3, lr}
 8001abe:	2001      	movs	r0, #1
 8001ac0:	f7ff f9f6 	bl	8000eb0 <XMC_SCU_CLOCK_UngatePeripheralClock>
 8001ac4:	2001      	movs	r0, #1
 8001ac6:	e8bd 4008 	ldmia.w	sp!, {r3, lr}
 8001aca:	f7ff b93d 	b.w	8000d48 <XMC_SCU_RESET_DeassertPeripheralReset>

08001ace <XMC_VADC_GLOBAL_Init>:
 8001ace:	b538      	push	{r3, r4, r5, lr}
 8001ad0:	460d      	mov	r5, r1
 8001ad2:	4604      	mov	r4, r0
 8001ad4:	f7ff fff2 	bl	8001abc <XMC_VADC_GLOBAL_EnableModule>
 8001ad8:	696b      	ldr	r3, [r5, #20]
 8001ada:	6023      	str	r3, [r4, #0]
 8001adc:	686b      	ldr	r3, [r5, #4]
 8001ade:	f443 4300 	orr.w	r3, r3, #32768	; 0x8000
 8001ae2:	f8c4 3080 	str.w	r3, [r4, #128]	; 0x80
 8001ae6:	68ab      	ldr	r3, [r5, #8]
 8001ae8:	f8c4 30a0 	str.w	r3, [r4, #160]	; 0xa0
 8001aec:	68eb      	ldr	r3, [r5, #12]
 8001aee:	f8c4 30a4 	str.w	r3, [r4, #164]	; 0xa4
 8001af2:	692b      	ldr	r3, [r5, #16]
 8001af4:	f8c4 3280 	str.w	r3, [r4, #640]	; 0x280
 8001af8:	682b      	ldr	r3, [r5, #0]
 8001afa:	f8c4 30b8 	str.w	r3, [r4, #184]	; 0xb8
 8001afe:	bd38      	pop	{r3, r4, r5, pc}

08001b00 <XMC_VADC_GLOBAL_InputClassInit>:
 8001b00:	3328      	adds	r3, #40	; 0x28
 8001b02:	b912      	cbnz	r2, 8001b0a <XMC_VADC_GLOBAL_InputClassInit+0xa>
 8001b04:	f240 721f 	movw	r2, #1823	; 0x71f
 8001b08:	e000      	b.n	8001b0c <XMC_VADC_GLOBAL_InputClassInit+0xc>
 8001b0a:	4a02      	ldr	r2, [pc, #8]	; (8001b14 <XMC_VADC_GLOBAL_InputClassInit+0x14>)
 8001b0c:	400a      	ands	r2, r1
 8001b0e:	f840 2023 	str.w	r2, [r0, r3, lsl #2]
 8001b12:	4770      	bx	lr
 8001b14:	071f0000 	.word	0x071f0000

08001b18 <XMC_VADC_GLOBAL_StartupCalibration>:
 8001b18:	f8d0 3080 	ldr.w	r3, [r0, #128]	; 0x80
 8001b1c:	f043 4300 	orr.w	r3, r3, #2147483648	; 0x80000000
 8001b20:	f8c0 3080 	str.w	r3, [r0, #128]	; 0x80
 8001b24:	4b0c      	ldr	r3, [pc, #48]	; (8001b58 <XMC_VADC_GLOBAL_StartupCalibration+0x40>)
 8001b26:	f8d3 2080 	ldr.w	r2, [r3, #128]	; 0x80
 8001b2a:	f412 3f40 	tst.w	r2, #196608	; 0x30000
 8001b2e:	d005      	beq.n	8001b3c <XMC_VADC_GLOBAL_StartupCalibration+0x24>
 8001b30:	f8d3 2080 	ldr.w	r2, [r3, #128]	; 0x80
 8001b34:	00d1      	lsls	r1, r2, #3
 8001b36:	d501      	bpl.n	8001b3c <XMC_VADC_GLOBAL_StartupCalibration+0x24>
 8001b38:	bf00      	nop
 8001b3a:	e7f9      	b.n	8001b30 <XMC_VADC_GLOBAL_StartupCalibration+0x18>
 8001b3c:	4b07      	ldr	r3, [pc, #28]	; (8001b5c <XMC_VADC_GLOBAL_StartupCalibration+0x44>)
 8001b3e:	f8d3 2080 	ldr.w	r2, [r3, #128]	; 0x80
 8001b42:	f412 3f40 	tst.w	r2, #196608	; 0x30000
 8001b46:	d005      	beq.n	8001b54 <XMC_VADC_GLOBAL_StartupCalibration+0x3c>
 8001b48:	f8d3 2080 	ldr.w	r2, [r3, #128]	; 0x80
 8001b4c:	00d2      	lsls	r2, r2, #3
 8001b4e:	d501      	bpl.n	8001b54 <XMC_VADC_GLOBAL_StartupCalibration+0x3c>
 8001b50:	bf00      	nop
 8001b52:	e7f9      	b.n	8001b48 <XMC_VADC_GLOBAL_StartupCalibration+0x30>
 8001b54:	4770      	bx	lr
 8001b56:	bf00      	nop
 8001b58:	40004400 	.word	0x40004400
 8001b5c:	40004800 	.word	0x40004800

08001b60 <XMC_VADC_GLOBAL_BackgroundSetReqSrcEventInterruptNode>:
 8001b60:	f8d0 3140 	ldr.w	r3, [r0, #320]	; 0x140
 8001b64:	f023 030f 	bic.w	r3, r3, #15
 8001b68:	f8c0 3140 	str.w	r3, [r0, #320]	; 0x140
 8001b6c:	2903      	cmp	r1, #3
 8001b6e:	f8d0 3140 	ldr.w	r3, [r0, #320]	; 0x140
 8001b72:	bf88      	it	hi
 8001b74:	3904      	subhi	r1, #4
 8001b76:	4319      	orrs	r1, r3
 8001b78:	f8c0 1140 	str.w	r1, [r0, #320]	; 0x140
 8001b7c:	4770      	bx	lr

08001b7e <XMC_VADC_GROUP_InputClassInit>:
 8001b7e:	b5f0      	push	{r4, r5, r6, r7, lr}
 8001b80:	b942      	cbnz	r2, 8001b94 <XMC_VADC_GROUP_InputClassInit+0x16>
 8001b82:	f001 051f 	and.w	r5, r1, #31
 8001b86:	261f      	movs	r6, #31
 8001b88:	f3c1 2102 	ubfx	r1, r1, #8, #3
 8001b8c:	f44f 6ee0 	mov.w	lr, #1792	; 0x700
 8001b90:	2708      	movs	r7, #8
 8001b92:	e009      	b.n	8001ba8 <XMC_VADC_GROUP_InputClassInit+0x2a>
 8001b94:	f3c1 4504 	ubfx	r5, r1, #16, #5
 8001b98:	f44f 16f8 	mov.w	r6, #2031616	; 0x1f0000
 8001b9c:	f3c1 6102 	ubfx	r1, r1, #24, #3
 8001ba0:	f04f 6ee0 	mov.w	lr, #117440512	; 0x7000000
 8001ba4:	2210      	movs	r2, #16
 8001ba6:	2718      	movs	r7, #24
 8001ba8:	eb00 0383 	add.w	r3, r0, r3, lsl #2
 8001bac:	40b9      	lsls	r1, r7
 8001bae:	f8d3 40a0 	ldr.w	r4, [r3, #160]	; 0xa0
 8001bb2:	ea24 040e 	bic.w	r4, r4, lr
 8001bb6:	4321      	orrs	r1, r4
 8001bb8:	ea21 0106 	bic.w	r1, r1, r6
 8001bbc:	4095      	lsls	r5, r2
 8001bbe:	4329      	orrs	r1, r5
 8001bc0:	f8c3 10a0 	str.w	r1, [r3, #160]	; 0xa0
 8001bc4:	bdf0      	pop	{r4, r5, r6, r7, pc}

08001bc6 <XMC_VADC_GROUP_Init>:
 8001bc6:	b5f8      	push	{r3, r4, r5, r6, r7, lr}
 8001bc8:	2200      	movs	r2, #0
 8001bca:	460c      	mov	r4, r1
 8001bcc:	4605      	mov	r5, r0
 8001bce:	4613      	mov	r3, r2
 8001bd0:	6849      	ldr	r1, [r1, #4]
 8001bd2:	f7ff ffd4 	bl	8001b7e <XMC_VADC_GROUP_InputClassInit>
 8001bd6:	4628      	mov	r0, r5
 8001bd8:	6861      	ldr	r1, [r4, #4]
 8001bda:	2201      	movs	r2, #1
 8001bdc:	2300      	movs	r3, #0
 8001bde:	f7ff ffce 	bl	8001b7e <XMC_VADC_GROUP_InputClassInit>
 8001be2:	4628      	mov	r0, r5
 8001be4:	68a1      	ldr	r1, [r4, #8]
 8001be6:	2200      	movs	r2, #0
 8001be8:	2301      	movs	r3, #1
 8001bea:	f7ff ffc8 	bl	8001b7e <XMC_VADC_GROUP_InputClassInit>
 8001bee:	2201      	movs	r2, #1
 8001bf0:	4613      	mov	r3, r2
 8001bf2:	4628      	mov	r0, r5
 8001bf4:	68a1      	ldr	r1, [r4, #8]
 8001bf6:	f7ff ffc2 	bl	8001b7e <XMC_VADC_GROUP_InputClassInit>
 8001bfa:	6923      	ldr	r3, [r4, #16]
 8001bfc:	78e1      	ldrb	r1, [r4, #3]
 8001bfe:	f8c5 3080 	str.w	r3, [r5, #128]	; 0x80
 8001c02:	68e3      	ldr	r3, [r4, #12]
 8001c04:	f8c5 30b8 	str.w	r3, [r5, #184]	; 0xb8
 8001c08:	f3c1 1200 	ubfx	r2, r1, #4, #1
 8001c0c:	f3c1 0381 	ubfx	r3, r1, #2, #2
 8001c10:	f3c1 1740 	ubfx	r7, r1, #5, #1
 8001c14:	f3c1 1080 	ubfx	r0, r1, #6, #1
 8001c18:	8861      	ldrh	r1, [r4, #2]
 8001c1a:	f3c1 0609 	ubfx	r6, r1, #0, #10
 8001c1e:	7821      	ldrb	r1, [r4, #0]
 8001c20:	f001 0107 	and.w	r1, r1, #7
 8001c24:	ea41 4106 	orr.w	r1, r1, r6, lsl #16
 8001c28:	f8c5 11f0 	str.w	r1, [r5, #496]	; 0x1f0
 8001c2c:	f8d5 11f0 	ldr.w	r1, [r5, #496]	; 0x1f0
 8001c30:	f041 4100 	orr.w	r1, r1, #2147483648	; 0x80000000
 8001c34:	ea41 7202 	orr.w	r2, r1, r2, lsl #28
 8001c38:	ea42 6283 	orr.w	r2, r2, r3, lsl #26
 8001c3c:	ea42 7347 	orr.w	r3, r2, r7, lsl #29
 8001c40:	ea43 7380 	orr.w	r3, r3, r0, lsl #30
 8001c44:	f8c5 31f0 	str.w	r3, [r5, #496]	; 0x1f0
 8001c48:	bdf8      	pop	{r3, r4, r5, r6, r7, pc}

08001c4a <XMC_VADC_GROUP_SetPowerMode>:
 8001c4a:	f8d0 3080 	ldr.w	r3, [r0, #128]	; 0x80
 8001c4e:	f023 0303 	bic.w	r3, r3, #3
 8001c52:	4319      	orrs	r1, r3
 8001c54:	f8c0 1080 	str.w	r1, [r0, #128]	; 0x80
 8001c58:	4770      	bx	lr
	...

08001c5c <XMC_VADC_GLOBAL_BackgroundInit>:
 8001c5c:	b5f0      	push	{r4, r5, r6, r7, lr}
 8001c5e:	4f25      	ldr	r7, [pc, #148]	; (8001cf4 <XMC_VADC_GLOBAL_BackgroundInit+0x98>)
 8001c60:	f8d7 3084 	ldr.w	r3, [r7, #132]	; 0x84
 8001c64:	f023 6380 	bic.w	r3, r3, #67108864	; 0x4000000
 8001c68:	f8c7 3084 	str.w	r3, [r7, #132]	; 0x84
 8001c6c:	4b22      	ldr	r3, [pc, #136]	; (8001cf8 <XMC_VADC_GLOBAL_BackgroundInit+0x9c>)
 8001c6e:	f8d3 2084 	ldr.w	r2, [r3, #132]	; 0x84
 8001c72:	f022 6280 	bic.w	r2, r2, #67108864	; 0x4000000
 8001c76:	f8c3 2084 	str.w	r2, [r3, #132]	; 0x84
 8001c7a:	780a      	ldrb	r2, [r1, #0]
 8001c7c:	f8d7 4084 	ldr.w	r4, [r7, #132]	; 0x84
 8001c80:	f012 0503 	ands.w	r5, r2, #3
 8001c84:	f3c2 0281 	ubfx	r2, r2, #2, #2
 8001c88:	ea4f 2202 	mov.w	r2, r2, lsl #8
 8001c8c:	f424 7440 	bic.w	r4, r4, #768	; 0x300
 8001c90:	bf0c      	ite	eq
 8001c92:	2600      	moveq	r6, #0
 8001c94:	f44f 6600 	movne.w	r6, #2048	; 0x800
 8001c98:	4314      	orrs	r4, r2
 8001c9a:	4334      	orrs	r4, r6
 8001c9c:	f8c7 4084 	str.w	r4, [r7, #132]	; 0x84
 8001ca0:	f8d3 4084 	ldr.w	r4, [r3, #132]	; 0x84
 8001ca4:	f424 7440 	bic.w	r4, r4, #768	; 0x300
 8001ca8:	4322      	orrs	r2, r4
 8001caa:	4332      	orrs	r2, r6
 8001cac:	f8c3 2084 	str.w	r2, [r3, #132]	; 0x84
 8001cb0:	684a      	ldr	r2, [r1, #4]
 8001cb2:	f442 0200 	orr.w	r2, r2, #8388608	; 0x800000
 8001cb6:	f442 4200 	orr.w	r2, r2, #32768	; 0x8000
 8001cba:	f8c0 2200 	str.w	r2, [r0, #512]	; 0x200
 8001cbe:	688a      	ldr	r2, [r1, #8]
 8001cc0:	490c      	ldr	r1, [pc, #48]	; (8001cf4 <XMC_VADC_GLOBAL_BackgroundInit+0x98>)
 8001cc2:	f042 0201 	orr.w	r2, r2, #1
 8001cc6:	f8c0 2204 	str.w	r2, [r0, #516]	; 0x204
 8001cca:	2d02      	cmp	r5, #2
 8001ccc:	bf02      	ittt	eq
 8001cce:	f8d0 2204 	ldreq.w	r2, [r0, #516]	; 0x204
 8001cd2:	f442 3280 	orreq.w	r2, r2, #65536	; 0x10000
 8001cd6:	f8c0 2204 	streq.w	r2, [r0, #516]	; 0x204
 8001cda:	f8d1 2084 	ldr.w	r2, [r1, #132]	; 0x84
 8001cde:	f042 6280 	orr.w	r2, r2, #67108864	; 0x4000000
 8001ce2:	f8c1 2084 	str.w	r2, [r1, #132]	; 0x84
 8001ce6:	f8d3 2084 	ldr.w	r2, [r3, #132]	; 0x84
 8001cea:	f042 6280 	orr.w	r2, r2, #67108864	; 0x4000000
 8001cee:	f8c3 2084 	str.w	r2, [r3, #132]	; 0x84
 8001cf2:	bdf0      	pop	{r4, r5, r6, r7, pc}
 8001cf4:	40004400 	.word	0x40004400
 8001cf8:	40004800 	.word	0x40004800

08001cfc <XMC_VADC_GROUP_ChannelInit>:
 8001cfc:	b530      	push	{r4, r5, lr}
 8001cfe:	2301      	movs	r3, #1
 8001d00:	f8d0 5088 	ldr.w	r5, [r0, #136]	; 0x88
 8001d04:	408b      	lsls	r3, r1
 8001d06:	ea25 0403 	bic.w	r4, r5, r3
 8001d0a:	7b13      	ldrb	r3, [r2, #12]
 8001d0c:	408b      	lsls	r3, r1
 8001d0e:	4323      	orrs	r3, r4
 8001d10:	f8c0 3088 	str.w	r3, [r0, #136]	; 0x88
 8001d14:	f992 300d 	ldrsb.w	r3, [r2, #13]
 8001d18:	2b00      	cmp	r3, #0
 8001d1a:	db19      	blt.n	8001d50 <XMC_VADC_GROUP_ChannelInit+0x54>
 8001d1c:	2901      	cmp	r1, #1
 8001d1e:	d107      	bne.n	8001d30 <XMC_VADC_GROUP_ChannelInit+0x34>
 8001d20:	f8d0 30b0 	ldr.w	r3, [r0, #176]	; 0xb0
 8001d24:	f423 53f8 	bic.w	r3, r3, #7936	; 0x1f00
 8001d28:	f8c0 30b0 	str.w	r3, [r0, #176]	; 0xb0
 8001d2c:	2508      	movs	r5, #8
 8001d2e:	e007      	b.n	8001d40 <XMC_VADC_GROUP_ChannelInit+0x44>
 8001d30:	b929      	cbnz	r1, 8001d3e <XMC_VADC_GROUP_ChannelInit+0x42>
 8001d32:	f8d0 30b0 	ldr.w	r3, [r0, #176]	; 0xb0
 8001d36:	f023 031f 	bic.w	r3, r3, #31
 8001d3a:	f8c0 30b0 	str.w	r3, [r0, #176]	; 0xb0
 8001d3e:	2500      	movs	r5, #0
 8001d40:	f992 300d 	ldrsb.w	r3, [r2, #13]
 8001d44:	f8d0 40b0 	ldr.w	r4, [r0, #176]	; 0xb0
 8001d48:	40ab      	lsls	r3, r5
 8001d4a:	4323      	orrs	r3, r4
 8001d4c:	f8c0 30b0 	str.w	r3, [r0, #176]	; 0xb0
 8001d50:	f8d0 40c8 	ldr.w	r4, [r0, #200]	; 0xc8
 8001d54:	6853      	ldr	r3, [r2, #4]
 8001d56:	4323      	orrs	r3, r4
 8001d58:	f8c0 30c8 	str.w	r3, [r0, #200]	; 0xc8
 8001d5c:	f8d0 40d0 	ldr.w	r4, [r0, #208]	; 0xd0
 8001d60:	6893      	ldr	r3, [r2, #8]
 8001d62:	4323      	orrs	r3, r4
 8001d64:	f8c0 30d0 	str.w	r3, [r0, #208]	; 0xd0
 8001d68:	3180      	adds	r1, #128	; 0x80
 8001d6a:	6813      	ldr	r3, [r2, #0]
 8001d6c:	f840 3021 	str.w	r3, [r0, r1, lsl #2]
 8001d70:	bd30      	pop	{r4, r5, pc}
	...

08001d74 <_sbrk>:
 8001d74:	b508      	push	{r3, lr}
 8001d76:	4b0c      	ldr	r3, [pc, #48]	; (8001da8 <_sbrk+0x34>)
 8001d78:	681a      	ldr	r2, [r3, #0]
 8001d7a:	b90a      	cbnz	r2, 8001d80 <_sbrk+0xc>
 8001d7c:	4a0b      	ldr	r2, [pc, #44]	; (8001dac <_sbrk+0x38>)
 8001d7e:	601a      	str	r2, [r3, #0]
 8001d80:	681a      	ldr	r2, [r3, #0]
 8001d82:	490b      	ldr	r1, [pc, #44]	; (8001db0 <_sbrk+0x3c>)
 8001d84:	1cc3      	adds	r3, r0, #3
 8001d86:	f023 0303 	bic.w	r3, r3, #3
 8001d8a:	4413      	add	r3, r2
 8001d8c:	428b      	cmp	r3, r1
 8001d8e:	d203      	bcs.n	8001d98 <_sbrk+0x24>
 8001d90:	4905      	ldr	r1, [pc, #20]	; (8001da8 <_sbrk+0x34>)
 8001d92:	4610      	mov	r0, r2
 8001d94:	600b      	str	r3, [r1, #0]
 8001d96:	bd08      	pop	{r3, pc}
 8001d98:	f000 ff4c 	bl	8002c34 <__errno>
 8001d9c:	230c      	movs	r3, #12
 8001d9e:	6003      	str	r3, [r0, #0]
 8001da0:	f04f 30ff 	mov.w	r0, #4294967295
 8001da4:	bd08      	pop	{r3, pc}
 8001da6:	bf00      	nop
 8001da8:	1fffca34 	.word	0x1fffca34
 8001dac:	20000000 	.word	0x20000000
 8001db0:	20005fc0 	.word	0x20005fc0

08001db4 <_init>:
 8001db4:	4770      	bx	lr

08001db6 <UART_lReconfigureRxFIFO>:
 8001db6:	6843      	ldr	r3, [r0, #4]
 8001db8:	6800      	ldr	r0, [r0, #0]
 8001dba:	f893 302c 	ldrb.w	r3, [r3, #44]	; 0x2c
 8001dbe:	2201      	movs	r2, #1
 8001dc0:	409a      	lsls	r2, r3
 8001dc2:	4291      	cmp	r1, r2
 8001dc4:	bf34      	ite	cc
 8001dc6:	f101 32ff 	addcc.w	r2, r1, #4294967295
 8001dca:	f102 32ff 	addcs.w	r2, r2, #4294967295
 8001dce:	4619      	mov	r1, r3
 8001dd0:	f7ff be00 	b.w	80019d4 <XMC_USIC_CH_RXFIFO_SetSizeTriggerLimit>

08001dd4 <UART_Init>:
 8001dd4:	6843      	ldr	r3, [r0, #4]
 8001dd6:	685b      	ldr	r3, [r3, #4]
 8001dd8:	4718      	bx	r3

08001dda <UART_StartTransmitIRQ>:
 8001dda:	b570      	push	{r4, r5, r6, lr}
 8001ddc:	6844      	ldr	r4, [r0, #4]
 8001dde:	6883      	ldr	r3, [r0, #8]
 8001de0:	f894 5029 	ldrb.w	r5, [r4, #41]	; 0x29
 8001de4:	bb2d      	cbnz	r5, 8001e32 <UART_StartTransmitIRQ+0x58>
 8001de6:	7e1d      	ldrb	r5, [r3, #24]
 8001de8:	f005 06ff 	and.w	r6, r5, #255	; 0xff
 8001dec:	bb1d      	cbnz	r5, 8001e36 <UART_StartTransmitIRQ+0x5c>
 8001dee:	b321      	cbz	r1, 8001e3a <UART_StartTransmitIRQ+0x60>
 8001df0:	b31a      	cbz	r2, 8001e3a <UART_StartTransmitIRQ+0x60>
 8001df2:	609a      	str	r2, [r3, #8]
 8001df4:	2201      	movs	r2, #1
 8001df6:	761a      	strb	r2, [r3, #24]
 8001df8:	f894 202b 	ldrb.w	r2, [r4, #43]	; 0x2b
 8001dfc:	6019      	str	r1, [r3, #0]
 8001dfe:	60de      	str	r6, [r3, #12]
 8001e00:	6803      	ldr	r3, [r0, #0]
 8001e02:	b152      	cbz	r2, 8001e1a <UART_StartTransmitIRQ+0x40>
 8001e04:	f44f 4200 	mov.w	r2, #32768	; 0x8000
 8001e08:	f8c3 2118 	str.w	r2, [r3, #280]	; 0x118
 8001e0c:	f8d3 2108 	ldr.w	r2, [r3, #264]	; 0x108
 8001e10:	f042 4280 	orr.w	r2, r2, #1073741824	; 0x40000000
 8001e14:	f8c3 2108 	str.w	r2, [r3, #264]	; 0x108
 8001e18:	e003      	b.n	8001e22 <UART_StartTransmitIRQ+0x48>
 8001e1a:	6c1a      	ldr	r2, [r3, #64]	; 0x40
 8001e1c:	f442 5200 	orr.w	r2, r2, #8192	; 0x2000
 8001e20:	641a      	str	r2, [r3, #64]	; 0x40
 8001e22:	f894 102d 	ldrb.w	r1, [r4, #45]	; 0x2d
 8001e26:	f44f 3280 	mov.w	r2, #65536	; 0x10000
 8001e2a:	408a      	lsls	r2, r1
 8001e2c:	669a      	str	r2, [r3, #104]	; 0x68
 8001e2e:	2000      	movs	r0, #0
 8001e30:	bd70      	pop	{r4, r5, r6, pc}
 8001e32:	2004      	movs	r0, #4
 8001e34:	bd70      	pop	{r4, r5, r6, pc}
 8001e36:	2002      	movs	r0, #2
 8001e38:	bd70      	pop	{r4, r5, r6, pc}
 8001e3a:	2003      	movs	r0, #3
 8001e3c:	bd70      	pop	{r4, r5, r6, pc}

08001e3e <UART_Transmit>:
 8001e3e:	6843      	ldr	r3, [r0, #4]
 8001e40:	f893 3029 	ldrb.w	r3, [r3, #41]	; 0x29
 8001e44:	b90b      	cbnz	r3, 8001e4a <UART_Transmit+0xc>
 8001e46:	f7ff bfc8 	b.w	8001dda <UART_StartTransmitIRQ>
 8001e4a:	2004      	movs	r0, #4
 8001e4c:	4770      	bx	lr

08001e4e <UART_StartReceiveIRQ>:
 8001e4e:	b5f8      	push	{r3, r4, r5, r6, r7, lr}
 8001e50:	6845      	ldr	r5, [r0, #4]
 8001e52:	6883      	ldr	r3, [r0, #8]
 8001e54:	f895 602a 	ldrb.w	r6, [r5, #42]	; 0x2a
 8001e58:	4604      	mov	r4, r0
 8001e5a:	bb26      	cbnz	r6, 8001ea6 <UART_StartReceiveIRQ+0x58>
 8001e5c:	7e5f      	ldrb	r7, [r3, #25]
 8001e5e:	f007 06ff 	and.w	r6, r7, #255	; 0xff
 8001e62:	bb17      	cbnz	r7, 8001eaa <UART_StartReceiveIRQ+0x5c>
 8001e64:	b319      	cbz	r1, 8001eae <UART_StartReceiveIRQ+0x60>
 8001e66:	b312      	cbz	r2, 8001eae <UART_StartReceiveIRQ+0x60>
 8001e68:	6059      	str	r1, [r3, #4]
 8001e6a:	2101      	movs	r1, #1
 8001e6c:	611a      	str	r2, [r3, #16]
 8001e6e:	7659      	strb	r1, [r3, #25]
 8001e70:	615e      	str	r6, [r3, #20]
 8001e72:	f895 302c 	ldrb.w	r3, [r5, #44]	; 0x2c
 8001e76:	6805      	ldr	r5, [r0, #0]
 8001e78:	b17b      	cbz	r3, 8001e9a <UART_StartReceiveIRQ+0x4c>
 8001e7a:	f44f 4380 	mov.w	r3, #16384	; 0x4000
 8001e7e:	f8c5 3118 	str.w	r3, [r5, #280]	; 0x118
 8001e82:	4611      	mov	r1, r2
 8001e84:	f7ff ff97 	bl	8001db6 <UART_lReconfigureRxFIFO>
 8001e88:	6822      	ldr	r2, [r4, #0]
 8001e8a:	f8d2 310c 	ldr.w	r3, [r2, #268]	; 0x10c
 8001e8e:	f043 43c0 	orr.w	r3, r3, #1610612736	; 0x60000000
 8001e92:	f8c2 310c 	str.w	r3, [r2, #268]	; 0x10c
 8001e96:	4630      	mov	r0, r6
 8001e98:	bdf8      	pop	{r3, r4, r5, r6, r7, pc}
 8001e9a:	6c2a      	ldr	r2, [r5, #64]	; 0x40
 8001e9c:	f442 4240 	orr.w	r2, r2, #49152	; 0xc000
 8001ea0:	642a      	str	r2, [r5, #64]	; 0x40
 8001ea2:	4618      	mov	r0, r3
 8001ea4:	bdf8      	pop	{r3, r4, r5, r6, r7, pc}
 8001ea6:	2004      	movs	r0, #4
 8001ea8:	bdf8      	pop	{r3, r4, r5, r6, r7, pc}
 8001eaa:	2002      	movs	r0, #2
 8001eac:	bdf8      	pop	{r3, r4, r5, r6, r7, pc}
 8001eae:	2003      	movs	r0, #3
 8001eb0:	bdf8      	pop	{r3, r4, r5, r6, r7, pc}

08001eb2 <UART_Receive>:
 8001eb2:	6843      	ldr	r3, [r0, #4]
 8001eb4:	f893 302a 	ldrb.w	r3, [r3, #42]	; 0x2a
 8001eb8:	b90b      	cbnz	r3, 8001ebe <UART_Receive+0xc>
 8001eba:	f7ff bfc8 	b.w	8001e4e <UART_StartReceiveIRQ>
 8001ebe:	2004      	movs	r0, #4
 8001ec0:	4770      	bx	lr

08001ec2 <UART_lTransmitHandler>:
 8001ec2:	b570      	push	{r4, r5, r6, lr}
 8001ec4:	6884      	ldr	r4, [r0, #8]
 8001ec6:	68e3      	ldr	r3, [r4, #12]
 8001ec8:	68a2      	ldr	r2, [r4, #8]
 8001eca:	4293      	cmp	r3, r2
 8001ecc:	4605      	mov	r5, r0
 8001ece:	d21e      	bcs.n	8001f0e <UART_lTransmitHandler+0x4c>
 8001ed0:	6842      	ldr	r2, [r0, #4]
 8001ed2:	f892 202b 	ldrb.w	r2, [r2, #43]	; 0x2b
 8001ed6:	b18a      	cbz	r2, 8001efc <UART_lTransmitHandler+0x3a>
 8001ed8:	6828      	ldr	r0, [r5, #0]
 8001eda:	f8d0 3114 	ldr.w	r3, [r0, #276]	; 0x114
 8001ede:	04de      	lsls	r6, r3, #19
 8001ee0:	d40b      	bmi.n	8001efa <UART_lTransmitHandler+0x38>
 8001ee2:	68e3      	ldr	r3, [r4, #12]
 8001ee4:	68a2      	ldr	r2, [r4, #8]
 8001ee6:	4293      	cmp	r3, r2
 8001ee8:	d230      	bcs.n	8001f4c <UART_lTransmitHandler+0x8a>
 8001eea:	6822      	ldr	r2, [r4, #0]
 8001eec:	5cd1      	ldrb	r1, [r2, r3]
 8001eee:	f7ff fc89 	bl	8001804 <XMC_UART_CH_Transmit>
 8001ef2:	68e3      	ldr	r3, [r4, #12]
 8001ef4:	3301      	adds	r3, #1
 8001ef6:	60e3      	str	r3, [r4, #12]
 8001ef8:	e7ee      	b.n	8001ed8 <UART_lTransmitHandler+0x16>
 8001efa:	bd70      	pop	{r4, r5, r6, pc}
 8001efc:	6822      	ldr	r2, [r4, #0]
 8001efe:	6800      	ldr	r0, [r0, #0]
 8001f00:	5cd1      	ldrb	r1, [r2, r3]
 8001f02:	f7ff fc7f 	bl	8001804 <XMC_UART_CH_Transmit>
 8001f06:	68e3      	ldr	r3, [r4, #12]
 8001f08:	3301      	adds	r3, #1
 8001f0a:	60e3      	str	r3, [r4, #12]
 8001f0c:	bd70      	pop	{r4, r5, r6, pc}
 8001f0e:	6803      	ldr	r3, [r0, #0]
 8001f10:	f8d3 2114 	ldr.w	r2, [r3, #276]	; 0x114
 8001f14:	0511      	lsls	r1, r2, #20
 8001f16:	d519      	bpl.n	8001f4c <UART_lTransmitHandler+0x8a>
 8001f18:	6841      	ldr	r1, [r0, #4]
 8001f1a:	f891 202b 	ldrb.w	r2, [r1, #43]	; 0x2b
 8001f1e:	b132      	cbz	r2, 8001f2e <UART_lTransmitHandler+0x6c>
 8001f20:	f8d3 2108 	ldr.w	r2, [r3, #264]	; 0x108
 8001f24:	f022 4280 	bic.w	r2, r2, #1073741824	; 0x40000000
 8001f28:	f8c3 2108 	str.w	r2, [r3, #264]	; 0x108
 8001f2c:	e003      	b.n	8001f36 <UART_lTransmitHandler+0x74>
 8001f2e:	6c1a      	ldr	r2, [r3, #64]	; 0x40
 8001f30:	f422 5200 	bic.w	r2, r2, #8192	; 0x2000
 8001f34:	641a      	str	r2, [r3, #64]	; 0x40
 8001f36:	6b9a      	ldr	r2, [r3, #56]	; 0x38
 8001f38:	0612      	lsls	r2, r2, #24
 8001f3a:	d4fc      	bmi.n	8001f36 <UART_lTransmitHandler+0x74>
 8001f3c:	2300      	movs	r3, #0
 8001f3e:	7623      	strb	r3, [r4, #24]
 8001f40:	6023      	str	r3, [r4, #0]
 8001f42:	688b      	ldr	r3, [r1, #8]
 8001f44:	b113      	cbz	r3, 8001f4c <UART_lTransmitHandler+0x8a>
 8001f46:	e8bd 4070 	ldmia.w	sp!, {r4, r5, r6, lr}
 8001f4a:	4718      	bx	r3
 8001f4c:	bd70      	pop	{r4, r5, r6, pc}

08001f4e <UART_lReceiveHandler>:
 8001f4e:	6843      	ldr	r3, [r0, #4]
 8001f50:	f893 302c 	ldrb.w	r3, [r3, #44]	; 0x2c
 8001f54:	e92d 41f0 	stmdb	sp!, {r4, r5, r6, r7, r8, lr}
 8001f58:	4605      	mov	r5, r0
 8001f5a:	6884      	ldr	r4, [r0, #8]
 8001f5c:	b353      	cbz	r3, 8001fb4 <UART_lReceiveHandler+0x66>
 8001f5e:	6828      	ldr	r0, [r5, #0]
 8001f60:	f8d0 3114 	ldr.w	r3, [r0, #276]	; 0x114
 8001f64:	071b      	lsls	r3, r3, #28
 8001f66:	d41b      	bmi.n	8001fa0 <UART_lReceiveHandler+0x52>
 8001f68:	6966      	ldr	r6, [r4, #20]
 8001f6a:	6923      	ldr	r3, [r4, #16]
 8001f6c:	429e      	cmp	r6, r3
 8001f6e:	d206      	bcs.n	8001f7e <UART_lReceiveHandler+0x30>
 8001f70:	6867      	ldr	r7, [r4, #4]
 8001f72:	f7ff fc58 	bl	8001826 <XMC_UART_CH_GetReceivedData>
 8001f76:	55b8      	strb	r0, [r7, r6]
 8001f78:	6963      	ldr	r3, [r4, #20]
 8001f7a:	3301      	adds	r3, #1
 8001f7c:	6163      	str	r3, [r4, #20]
 8001f7e:	6962      	ldr	r2, [r4, #20]
 8001f80:	6923      	ldr	r3, [r4, #16]
 8001f82:	429a      	cmp	r2, r3
 8001f84:	d1eb      	bne.n	8001f5e <UART_lReceiveHandler+0x10>
 8001f86:	2300      	movs	r3, #0
 8001f88:	682a      	ldr	r2, [r5, #0]
 8001f8a:	7663      	strb	r3, [r4, #25]
 8001f8c:	f8d2 310c 	ldr.w	r3, [r2, #268]	; 0x10c
 8001f90:	f023 43c0 	bic.w	r3, r3, #1610612736	; 0x60000000
 8001f94:	f8c2 310c 	str.w	r3, [r2, #268]	; 0x10c
 8001f98:	686b      	ldr	r3, [r5, #4]
 8001f9a:	68db      	ldr	r3, [r3, #12]
 8001f9c:	b103      	cbz	r3, 8001fa0 <UART_lReceiveHandler+0x52>
 8001f9e:	4798      	blx	r3
 8001fa0:	6963      	ldr	r3, [r4, #20]
 8001fa2:	6921      	ldr	r1, [r4, #16]
 8001fa4:	428b      	cmp	r3, r1
 8001fa6:	d222      	bcs.n	8001fee <UART_lReceiveHandler+0xa0>
 8001fa8:	4628      	mov	r0, r5
 8001faa:	1ac9      	subs	r1, r1, r3
 8001fac:	e8bd 41f0 	ldmia.w	sp!, {r4, r5, r6, r7, r8, lr}
 8001fb0:	f7ff bf01 	b.w	8001db6 <UART_lReconfigureRxFIFO>
 8001fb4:	6966      	ldr	r6, [r4, #20]
 8001fb6:	6923      	ldr	r3, [r4, #16]
 8001fb8:	429e      	cmp	r6, r3
 8001fba:	d207      	bcs.n	8001fcc <UART_lReceiveHandler+0x7e>
 8001fbc:	6800      	ldr	r0, [r0, #0]
 8001fbe:	6867      	ldr	r7, [r4, #4]
 8001fc0:	f7ff fc31 	bl	8001826 <XMC_UART_CH_GetReceivedData>
 8001fc4:	55b8      	strb	r0, [r7, r6]
 8001fc6:	6963      	ldr	r3, [r4, #20]
 8001fc8:	3301      	adds	r3, #1
 8001fca:	6163      	str	r3, [r4, #20]
 8001fcc:	6962      	ldr	r2, [r4, #20]
 8001fce:	6923      	ldr	r3, [r4, #16]
 8001fd0:	429a      	cmp	r2, r3
 8001fd2:	d10c      	bne.n	8001fee <UART_lReceiveHandler+0xa0>
 8001fd4:	2300      	movs	r3, #0
 8001fd6:	682a      	ldr	r2, [r5, #0]
 8001fd8:	7663      	strb	r3, [r4, #25]
 8001fda:	6c13      	ldr	r3, [r2, #64]	; 0x40
 8001fdc:	f423 4340 	bic.w	r3, r3, #49152	; 0xc000
 8001fe0:	6413      	str	r3, [r2, #64]	; 0x40
 8001fe2:	686b      	ldr	r3, [r5, #4]
 8001fe4:	68db      	ldr	r3, [r3, #12]
 8001fe6:	b113      	cbz	r3, 8001fee <UART_lReceiveHandler+0xa0>
 8001fe8:	e8bd 41f0 	ldmia.w	sp!, {r4, r5, r6, r7, r8, lr}
 8001fec:	4718      	bx	r3
 8001fee:	e8bd 81f0 	ldmia.w	sp!, {r4, r5, r6, r7, r8, pc}

08001ff2 <NVIC_EncodePriority.constprop.0>:
 8001ff2:	f000 0007 	and.w	r0, r0, #7
 8001ff6:	f1c0 0207 	rsb	r2, r0, #7
 8001ffa:	2a06      	cmp	r2, #6
 8001ffc:	bf28      	it	cs
 8001ffe:	2206      	movcs	r2, #6
 8002000:	b100      	cbz	r0, 8002004 <NVIC_EncodePriority.constprop.0+0x12>
 8002002:	3801      	subs	r0, #1
 8002004:	2301      	movs	r3, #1
 8002006:	4093      	lsls	r3, r2
 8002008:	3b01      	subs	r3, #1
 800200a:	fa03 f000 	lsl.w	r0, r3, r0
 800200e:	4770      	bx	lr

08002010 <UART_1_init>:
 8002010:	b538      	push	{r3, r4, r5, lr}
 8002012:	4d2c      	ldr	r5, [pc, #176]	; (80020c4 <UART_1_init+0xb4>)
 8002014:	4c2c      	ldr	r4, [pc, #176]	; (80020c8 <UART_1_init+0xb8>)
 8002016:	4a2d      	ldr	r2, [pc, #180]	; (80020cc <UART_1_init+0xbc>)
 8002018:	4628      	mov	r0, r5
 800201a:	210f      	movs	r1, #15
 800201c:	f7fe fe3e 	bl	8000c9c <XMC_GPIO_Init>
 8002020:	4620      	mov	r0, r4
 8002022:	492b      	ldr	r1, [pc, #172]	; (80020d0 <UART_1_init+0xc0>)
 8002024:	2201      	movs	r2, #1
 8002026:	f7ff fbb5 	bl	8001794 <XMC_UART_CH_InitEx>
 800202a:	69e3      	ldr	r3, [r4, #28]
 800202c:	f023 0307 	bic.w	r3, r3, #7
 8002030:	f043 0302 	orr.w	r3, r3, #2
 8002034:	61e3      	str	r3, [r4, #28]
 8002036:	4620      	mov	r0, r4
 8002038:	2110      	movs	r1, #16
 800203a:	2204      	movs	r2, #4
 800203c:	2301      	movs	r3, #1
 800203e:	f7ff fc9b 	bl	8001978 <XMC_USIC_CH_TXFIFO_Configure>
 8002042:	2100      	movs	r1, #0
 8002044:	4620      	mov	r0, r4
 8002046:	460b      	mov	r3, r1
 8002048:	2204      	movs	r2, #4
 800204a:	f7ff fcab 	bl	80019a4 <XMC_USIC_CH_RXFIFO_Configure>
 800204e:	6c23      	ldr	r3, [r4, #64]	; 0x40
 8002050:	4a20      	ldr	r2, [pc, #128]	; (80020d4 <UART_1_init+0xc4>)
 8002052:	f023 030f 	bic.w	r3, r3, #15
 8002056:	f043 0302 	orr.w	r3, r3, #2
 800205a:	6423      	str	r3, [r4, #64]	; 0x40
 800205c:	4628      	mov	r0, r5
 800205e:	210e      	movs	r1, #14
 8002060:	f7fe fe1c 	bl	8000c9c <XMC_GPIO_Init>
 8002064:	4620      	mov	r0, r4
 8002066:	2110      	movs	r1, #16
 8002068:	2202      	movs	r2, #2
 800206a:	f7ff fcbc 	bl	80019e6 <XMC_USIC_CH_SetInterruptNodePointer>
 800206e:	4620      	mov	r0, r4
 8002070:	2110      	movs	r1, #16
 8002072:	2201      	movs	r2, #1
 8002074:	f7ff fcc1 	bl	80019fa <XMC_USIC_CH_TXFIFO_SetInterruptNodePointer>
 8002078:	4d17      	ldr	r5, [pc, #92]	; (80020d8 <UART_1_init+0xc8>)
 800207a:	4620      	mov	r0, r4
 800207c:	2110      	movs	r1, #16
 800207e:	2200      	movs	r2, #0
 8002080:	f7ff fcc7 	bl	8001a12 <XMC_USIC_CH_RXFIFO_SetInterruptNodePointer>
 8002084:	4620      	mov	r0, r4
 8002086:	2113      	movs	r1, #19
 8002088:	2200      	movs	r2, #0
 800208a:	f7ff fcc2 	bl	8001a12 <XMC_USIC_CH_RXFIFO_SetInterruptNodePointer>
 800208e:	68e8      	ldr	r0, [r5, #12]
 8002090:	4c12      	ldr	r4, [pc, #72]	; (80020dc <UART_1_init+0xcc>)
 8002092:	f3c0 2002 	ubfx	r0, r0, #8, #3
 8002096:	f7ff ffac 	bl	8001ff2 <NVIC_EncodePriority.constprop.0>
 800209a:	0080      	lsls	r0, r0, #2
 800209c:	b2c0      	uxtb	r0, r0
 800209e:	f884 035b 	strb.w	r0, [r4, #859]	; 0x35b
 80020a2:	f04f 6300 	mov.w	r3, #134217728	; 0x8000000
 80020a6:	60a3      	str	r3, [r4, #8]
 80020a8:	68e8      	ldr	r0, [r5, #12]
 80020aa:	f3c0 2002 	ubfx	r0, r0, #8, #3
 80020ae:	f7ff ffa0 	bl	8001ff2 <NVIC_EncodePriority.constprop.0>
 80020b2:	0080      	lsls	r0, r0, #2
 80020b4:	b2c0      	uxtb	r0, r0
 80020b6:	f884 035a 	strb.w	r0, [r4, #858]	; 0x35a
 80020ba:	f04f 6380 	mov.w	r3, #67108864	; 0x4000000
 80020be:	60a3      	str	r3, [r4, #8]
 80020c0:	2000      	movs	r0, #0
 80020c2:	bd38      	pop	{r3, r4, r5, pc}
 80020c4:	48028200 	.word	0x48028200
 80020c8:	48020000 	.word	0x48020000
 80020cc:	080036f0 	.word	0x080036f0
 80020d0:	08003738 	.word	0x08003738
 80020d4:	08003798 	.word	0x08003798
 80020d8:	e000ed00 	.word	0xe000ed00
 80020dc:	e000e100 	.word	0xe000e100

080020e0 <UART_0_init>:
 80020e0:	b538      	push	{r3, r4, r5, lr}
 80020e2:	4d2c      	ldr	r5, [pc, #176]	; (8002194 <UART_0_init+0xb4>)
 80020e4:	4c2c      	ldr	r4, [pc, #176]	; (8002198 <UART_0_init+0xb8>)
 80020e6:	4a2d      	ldr	r2, [pc, #180]	; (800219c <UART_0_init+0xbc>)
 80020e8:	4628      	mov	r0, r5
 80020ea:	2104      	movs	r1, #4
 80020ec:	f7fe fdd6 	bl	8000c9c <XMC_GPIO_Init>
 80020f0:	4620      	mov	r0, r4
 80020f2:	492b      	ldr	r1, [pc, #172]	; (80021a0 <UART_0_init+0xc0>)
 80020f4:	2201      	movs	r2, #1
 80020f6:	f7ff fb4d 	bl	8001794 <XMC_UART_CH_InitEx>
 80020fa:	69e3      	ldr	r3, [r4, #28]
 80020fc:	f023 0307 	bic.w	r3, r3, #7
 8002100:	f043 0301 	orr.w	r3, r3, #1
 8002104:	61e3      	str	r3, [r4, #28]
 8002106:	4620      	mov	r0, r4
 8002108:	2130      	movs	r1, #48	; 0x30
 800210a:	2204      	movs	r2, #4
 800210c:	2301      	movs	r3, #1
 800210e:	f7ff fc33 	bl	8001978 <XMC_USIC_CH_TXFIFO_Configure>
 8002112:	4620      	mov	r0, r4
 8002114:	2120      	movs	r1, #32
 8002116:	2204      	movs	r2, #4
 8002118:	2300      	movs	r3, #0
 800211a:	f7ff fc43 	bl	80019a4 <XMC_USIC_CH_RXFIFO_Configure>
 800211e:	6c23      	ldr	r3, [r4, #64]	; 0x40
 8002120:	4a20      	ldr	r2, [pc, #128]	; (80021a4 <UART_0_init+0xc4>)
 8002122:	f023 030f 	bic.w	r3, r3, #15
 8002126:	f043 0302 	orr.w	r3, r3, #2
 800212a:	6423      	str	r3, [r4, #64]	; 0x40
 800212c:	4628      	mov	r0, r5
 800212e:	2105      	movs	r1, #5
 8002130:	f7fe fdb4 	bl	8000c9c <XMC_GPIO_Init>
 8002134:	4620      	mov	r0, r4
 8002136:	2110      	movs	r1, #16
 8002138:	2200      	movs	r2, #0
 800213a:	f7ff fc54 	bl	80019e6 <XMC_USIC_CH_SetInterruptNodePointer>
 800213e:	4620      	mov	r0, r4
 8002140:	2110      	movs	r1, #16
 8002142:	2203      	movs	r2, #3
 8002144:	f7ff fc59 	bl	80019fa <XMC_USIC_CH_TXFIFO_SetInterruptNodePointer>
 8002148:	4d17      	ldr	r5, [pc, #92]	; (80021a8 <UART_0_init+0xc8>)
 800214a:	4620      	mov	r0, r4
 800214c:	2110      	movs	r1, #16
 800214e:	2205      	movs	r2, #5
 8002150:	f7ff fc5f 	bl	8001a12 <XMC_USIC_CH_RXFIFO_SetInterruptNodePointer>
 8002154:	4620      	mov	r0, r4
 8002156:	2113      	movs	r1, #19
 8002158:	2205      	movs	r2, #5
 800215a:	f7ff fc5a 	bl	8001a12 <XMC_USIC_CH_RXFIFO_SetInterruptNodePointer>
 800215e:	68e8      	ldr	r0, [r5, #12]
 8002160:	4c12      	ldr	r4, [pc, #72]	; (80021ac <UART_0_init+0xcc>)
 8002162:	f3c0 2002 	ubfx	r0, r0, #8, #3
 8002166:	f7ff ff44 	bl	8001ff2 <NVIC_EncodePriority.constprop.0>
 800216a:	0080      	lsls	r0, r0, #2
 800216c:	b2c0      	uxtb	r0, r0
 800216e:	f884 0357 	strb.w	r0, [r4, #855]	; 0x357
 8002172:	f44f 0300 	mov.w	r3, #8388608	; 0x800000
 8002176:	60a3      	str	r3, [r4, #8]
 8002178:	68e8      	ldr	r0, [r5, #12]
 800217a:	f3c0 2002 	ubfx	r0, r0, #8, #3
 800217e:	f7ff ff38 	bl	8001ff2 <NVIC_EncodePriority.constprop.0>
 8002182:	0080      	lsls	r0, r0, #2
 8002184:	b2c0      	uxtb	r0, r0
 8002186:	f884 0359 	strb.w	r0, [r4, #857]	; 0x359
 800218a:	f04f 7300 	mov.w	r3, #33554432	; 0x2000000
 800218e:	60a3      	str	r3, [r4, #8]
 8002190:	2000      	movs	r0, #0
 8002192:	bd38      	pop	{r3, r4, r5, pc}
 8002194:	48028100 	.word	0x48028100
 8002198:	40030000 	.word	0x40030000
 800219c:	080036fc 	.word	0x080036fc
 80021a0:	080037a4 	.word	0x080037a4
 80021a4:	0800375c 	.word	0x0800375c
 80021a8:	e000ed00 	.word	0xe000ed00
 80021ac:	e000e100 	.word	0xe000e100

080021b0 <USIC0_3_IRQHandler>:
 80021b0:	4801      	ldr	r0, [pc, #4]	; (80021b8 <USIC0_3_IRQHandler+0x8>)
 80021b2:	f7ff be86 	b.w	8001ec2 <UART_lTransmitHandler>
 80021b6:	bf00      	nop
 80021b8:	1fffc810 	.word	0x1fffc810

080021bc <USIC0_5_IRQHandler>:
 80021bc:	4801      	ldr	r0, [pc, #4]	; (80021c4 <USIC0_5_IRQHandler+0x8>)
 80021be:	f7ff bec6 	b.w	8001f4e <UART_lReceiveHandler>
 80021c2:	bf00      	nop
 80021c4:	1fffc810 	.word	0x1fffc810

080021c8 <USIC1_1_IRQHandler>:
 80021c8:	4801      	ldr	r0, [pc, #4]	; (80021d0 <USIC1_1_IRQHandler+0x8>)
 80021ca:	f7ff be7a 	b.w	8001ec2 <UART_lTransmitHandler>
 80021ce:	bf00      	nop
 80021d0:	1fffc81c 	.word	0x1fffc81c

080021d4 <USIC1_0_IRQHandler>:
 80021d4:	4801      	ldr	r0, [pc, #4]	; (80021dc <USIC1_0_IRQHandler+0x8>)
 80021d6:	f7ff beba 	b.w	8001f4e <UART_lReceiveHandler>
 80021da:	bf00      	nop
 80021dc:	1fffc81c 	.word	0x1fffc81c

080021e0 <TIMER_CCU4_lShadowTransfer>:
 80021e0:	6943      	ldr	r3, [r0, #20]
 80021e2:	8c42      	ldrh	r2, [r0, #34]	; 0x22
 80021e4:	635a      	str	r2, [r3, #52]	; 0x34
 80021e6:	2200      	movs	r2, #0
 80021e8:	63da      	str	r2, [r3, #60]	; 0x3c
 80021ea:	6903      	ldr	r3, [r0, #16]
 80021ec:	68c2      	ldr	r2, [r0, #12]
 80021ee:	689b      	ldr	r3, [r3, #8]
 80021f0:	611a      	str	r2, [r3, #16]
 80021f2:	4770      	bx	lr

080021f4 <TIMER_CCU4_lInit>:
 80021f4:	b538      	push	{r3, r4, r5, lr}
 80021f6:	4604      	mov	r4, r0
 80021f8:	6900      	ldr	r0, [r0, #16]
 80021fa:	f000 fab3 	bl	8002764 <GLOBAL_CCU4_Init>
 80021fe:	6923      	ldr	r3, [r4, #16]
 8002200:	7e21      	ldrb	r1, [r4, #24]
 8002202:	689a      	ldr	r2, [r3, #8]
 8002204:	2301      	movs	r3, #1
 8002206:	408b      	lsls	r3, r1
 8002208:	60d3      	str	r3, [r2, #12]
 800220a:	69e1      	ldr	r1, [r4, #28]
 800220c:	4605      	mov	r5, r0
 800220e:	6960      	ldr	r0, [r4, #20]
 8002210:	f7ff f967 	bl	80014e2 <XMC_CCU4_SLICE_CompareInit>
 8002214:	4620      	mov	r0, r4
 8002216:	f7ff ffe3 	bl	80021e0 <TIMER_CCU4_lShadowTransfer>
 800221a:	f894 3025 	ldrb.w	r3, [r4, #37]	; 0x25
 800221e:	b163      	cbz	r3, 800223a <TIMER_CCU4_lInit+0x46>
 8002220:	f894 2020 	ldrb.w	r2, [r4, #32]
 8002224:	6960      	ldr	r0, [r4, #20]
 8002226:	2100      	movs	r1, #0
 8002228:	f7ff f972 	bl	8001510 <XMC_CCU4_SLICE_SetInterruptNode>
 800222c:	6962      	ldr	r2, [r4, #20]
 800222e:	f8d2 30a4 	ldr.w	r3, [r2, #164]	; 0xa4
 8002232:	f043 0301 	orr.w	r3, r3, #1
 8002236:	f8c2 30a4 	str.w	r3, [r2, #164]	; 0xa4
 800223a:	6963      	ldr	r3, [r4, #20]
 800223c:	f894 1024 	ldrb.w	r1, [r4, #36]	; 0x24
 8002240:	2202      	movs	r2, #2
 8002242:	611a      	str	r2, [r3, #16]
 8002244:	2201      	movs	r2, #1
 8002246:	f884 2026 	strb.w	r2, [r4, #38]	; 0x26
 800224a:	b101      	cbz	r1, 800224e <TIMER_CCU4_lInit+0x5a>
 800224c:	60da      	str	r2, [r3, #12]
 800224e:	4628      	mov	r0, r5
 8002250:	bd38      	pop	{r3, r4, r5, pc}

08002252 <TIMER_Init>:
 8002252:	f890 2026 	ldrb.w	r2, [r0, #38]	; 0x26
 8002256:	b922      	cbnz	r2, 8002262 <TIMER_Init+0x10>
 8002258:	f890 3021 	ldrb.w	r3, [r0, #33]	; 0x21
 800225c:	b90b      	cbnz	r3, 8002262 <TIMER_Init+0x10>
 800225e:	f7ff bfc9 	b.w	80021f4 <TIMER_CCU4_lInit>
 8002262:	2000      	movs	r0, #0
 8002264:	4770      	bx	lr
	...

08002268 <PIN_INTERRUPT_Init>:
 8002268:	b5f8      	push	{r3, r4, r5, r6, r7, lr}
 800226a:	4604      	mov	r4, r0
 800226c:	f104 0208 	add.w	r2, r4, #8
 8002270:	6840      	ldr	r0, [r0, #4]
 8002272:	f894 1021 	ldrb.w	r1, [r4, #33]	; 0x21
 8002276:	f7fe fd11 	bl	8000c9c <XMC_GPIO_Init>
 800227a:	6820      	ldr	r0, [r4, #0]
 800227c:	7fe1      	ldrb	r1, [r4, #31]
 800227e:	f104 0214 	add.w	r2, r4, #20
 8002282:	f7ff f95b 	bl	800153c <XMC_ERU_ETL_Init>
 8002286:	f894 1020 	ldrb.w	r1, [r4, #32]
 800228a:	6820      	ldr	r0, [r4, #0]
 800228c:	2201      	movs	r2, #1
 800228e:	f7ff f96a 	bl	8001566 <XMC_ERU_OGU_SetServiceRequestMode>
 8002292:	4b22      	ldr	r3, [pc, #136]	; (800231c <PIN_INTERRUPT_Init+0xb4>)
 8002294:	7f25      	ldrb	r5, [r4, #28]
 8002296:	68d9      	ldr	r1, [r3, #12]
 8002298:	7f62      	ldrb	r2, [r4, #29]
 800229a:	7fa7      	ldrb	r7, [r4, #30]
 800229c:	f3c1 2102 	ubfx	r1, r1, #8, #3
 80022a0:	f1c1 0e07 	rsb	lr, r1, #7
 80022a4:	f1be 0f06 	cmp.w	lr, #6
 80022a8:	bf28      	it	cs
 80022aa:	f04f 0e06 	movcs.w	lr, #6
 80022ae:	b101      	cbz	r1, 80022b2 <PIN_INTERRUPT_Init+0x4a>
 80022b0:	3901      	subs	r1, #1
 80022b2:	2001      	movs	r0, #1
 80022b4:	fa00 f301 	lsl.w	r3, r0, r1
 80022b8:	3b01      	subs	r3, #1
 80022ba:	fa00 f00e 	lsl.w	r0, r0, lr
 80022be:	ea03 0607 	and.w	r6, r3, r7
 80022c2:	1e43      	subs	r3, r0, #1
 80022c4:	4013      	ands	r3, r2
 80022c6:	408b      	lsls	r3, r1
 80022c8:	b26a      	sxtb	r2, r5
 80022ca:	2a00      	cmp	r2, #0
 80022cc:	ea43 0306 	orr.w	r3, r3, r6
 80022d0:	ea4f 0383 	mov.w	r3, r3, lsl #2
 80022d4:	bfaf      	iteee	ge
 80022d6:	f102 4260 	addge.w	r2, r2, #3758096384	; 0xe0000000
 80022da:	f005 050f 	andlt.w	r5, r5, #15
 80022de:	4a10      	ldrlt	r2, [pc, #64]	; (8002320 <PIN_INTERRUPT_Init+0xb8>)
 80022e0:	b2db      	uxtblt	r3, r3
 80022e2:	bfa5      	ittet	ge
 80022e4:	f502 4261 	addge.w	r2, r2, #57600	; 0xe100
 80022e8:	b2db      	uxtbge	r3, r3
 80022ea:	5553      	strblt	r3, [r2, r5]
 80022ec:	f882 3300 	strbge.w	r3, [r2, #768]	; 0x300
 80022f0:	f894 3022 	ldrb.w	r3, [r4, #34]	; 0x22
 80022f4:	b183      	cbz	r3, 8002318 <PIN_INTERRUPT_Init+0xb0>
 80022f6:	7f22      	ldrb	r2, [r4, #28]
 80022f8:	b253      	sxtb	r3, r2
 80022fa:	2b00      	cmp	r3, #0
 80022fc:	db0c      	blt.n	8002318 <PIN_INTERRUPT_Init+0xb0>
 80022fe:	095b      	lsrs	r3, r3, #5
 8002300:	009b      	lsls	r3, r3, #2
 8002302:	f103 4360 	add.w	r3, r3, #3758096384	; 0xe0000000
 8002306:	f002 011f 	and.w	r1, r2, #31
 800230a:	f503 4361 	add.w	r3, r3, #57600	; 0xe100
 800230e:	2201      	movs	r2, #1
 8002310:	408a      	lsls	r2, r1
 8002312:	f8c3 2180 	str.w	r2, [r3, #384]	; 0x180
 8002316:	601a      	str	r2, [r3, #0]
 8002318:	2000      	movs	r0, #0
 800231a:	bdf8      	pop	{r3, r4, r5, r6, r7, pc}
 800231c:	e000ed00 	.word	0xe000ed00
 8002320:	e000ed14 	.word	0xe000ed14

08002324 <INTERRUPT_Init>:
 8002324:	4b20      	ldr	r3, [pc, #128]	; (80023a8 <INTERRUPT_Init+0x84>)
 8002326:	b5f0      	push	{r4, r5, r6, r7, lr}
 8002328:	68d9      	ldr	r1, [r3, #12]
 800232a:	7805      	ldrb	r5, [r0, #0]
 800232c:	7842      	ldrb	r2, [r0, #1]
 800232e:	7887      	ldrb	r7, [r0, #2]
 8002330:	f3c1 2102 	ubfx	r1, r1, #8, #3
 8002334:	f1c1 0e07 	rsb	lr, r1, #7
 8002338:	f1be 0f06 	cmp.w	lr, #6
 800233c:	bf28      	it	cs
 800233e:	f04f 0e06 	movcs.w	lr, #6
 8002342:	b101      	cbz	r1, 8002346 <INTERRUPT_Init+0x22>
 8002344:	3901      	subs	r1, #1
 8002346:	2401      	movs	r4, #1
 8002348:	fa04 f301 	lsl.w	r3, r4, r1
 800234c:	3b01      	subs	r3, #1
 800234e:	fa04 f40e 	lsl.w	r4, r4, lr
 8002352:	ea03 0607 	and.w	r6, r3, r7
 8002356:	1e63      	subs	r3, r4, #1
 8002358:	4013      	ands	r3, r2
 800235a:	408b      	lsls	r3, r1
 800235c:	b26a      	sxtb	r2, r5
 800235e:	2a00      	cmp	r2, #0
 8002360:	ea43 0306 	orr.w	r3, r3, r6
 8002364:	ea4f 0383 	mov.w	r3, r3, lsl #2
 8002368:	bfaf      	iteee	ge
 800236a:	f102 4260 	addge.w	r2, r2, #3758096384	; 0xe0000000
 800236e:	f005 050f 	andlt.w	r5, r5, #15
 8002372:	4a0e      	ldrlt	r2, [pc, #56]	; (80023ac <INTERRUPT_Init+0x88>)
 8002374:	b2db      	uxtblt	r3, r3
 8002376:	bfa5      	ittet	ge
 8002378:	f502 4261 	addge.w	r2, r2, #57600	; 0xe100
 800237c:	b2db      	uxtbge	r3, r3
 800237e:	5553      	strblt	r3, [r2, r5]
 8002380:	f882 3300 	strbge.w	r3, [r2, #768]	; 0x300
 8002384:	78c3      	ldrb	r3, [r0, #3]
 8002386:	b163      	cbz	r3, 80023a2 <INTERRUPT_Init+0x7e>
 8002388:	7802      	ldrb	r2, [r0, #0]
 800238a:	b253      	sxtb	r3, r2
 800238c:	2b00      	cmp	r3, #0
 800238e:	db08      	blt.n	80023a2 <INTERRUPT_Init+0x7e>
 8002390:	2101      	movs	r1, #1
 8002392:	f002 021f 	and.w	r2, r2, #31
 8002396:	fa01 f202 	lsl.w	r2, r1, r2
 800239a:	095b      	lsrs	r3, r3, #5
 800239c:	4904      	ldr	r1, [pc, #16]	; (80023b0 <INTERRUPT_Init+0x8c>)
 800239e:	f841 2023 	str.w	r2, [r1, r3, lsl #2]
 80023a2:	2000      	movs	r0, #0
 80023a4:	bdf0      	pop	{r4, r5, r6, r7, pc}
 80023a6:	bf00      	nop
 80023a8:	e000ed00 	.word	0xe000ed00
 80023ac:	e000ed14 	.word	0xe000ed14
 80023b0:	e000e100 	.word	0xe000e100

080023b4 <I2C_MASTER_lSendStart_Or_RepeatedStart>:
 80023b4:	b510      	push	{r4, lr}
 80023b6:	4604      	mov	r4, r0
 80023b8:	6800      	ldr	r0, [r0, #0]
 80023ba:	6cc3      	ldr	r3, [r0, #76]	; 0x4c
 80023bc:	f043 030c 	orr.w	r3, r3, #12
 80023c0:	64c3      	str	r3, [r0, #76]	; 0x4c
 80023c2:	68a3      	ldr	r3, [r4, #8]
 80023c4:	f893 4028 	ldrb.w	r4, [r3, #40]	; 0x28
 80023c8:	b289      	uxth	r1, r1
 80023ca:	b13c      	cbz	r4, 80023dc <I2C_MASTER_lSendStart_Or_RepeatedStart+0x28>
 80023cc:	6cc3      	ldr	r3, [r0, #76]	; 0x4c
 80023ce:	f043 0308 	orr.w	r3, r3, #8
 80023d2:	64c3      	str	r3, [r0, #76]	; 0x4c
 80023d4:	e8bd 4010 	ldmia.w	sp!, {r4, lr}
 80023d8:	f7ff b966 	b.w	80016a8 <XMC_I2C_CH_MasterRepeatedStart>
 80023dc:	2401      	movs	r4, #1
 80023de:	f883 4028 	strb.w	r4, [r3, #40]	; 0x28
 80023e2:	6cc3      	ldr	r3, [r0, #76]	; 0x4c
 80023e4:	f043 0304 	orr.w	r3, r3, #4
 80023e8:	64c3      	str	r3, [r0, #76]	; 0x4c
 80023ea:	e8bd 4010 	ldmia.w	sp!, {r4, lr}
 80023ee:	f7ff b943 	b.w	8001678 <XMC_I2C_CH_MasterStart>

080023f2 <I2C_MASTER_Init>:
 80023f2:	b508      	push	{r3, lr}
 80023f4:	b120      	cbz	r0, 8002400 <I2C_MASTER_Init+0xe>
 80023f6:	6843      	ldr	r3, [r0, #4]
 80023f8:	685b      	ldr	r3, [r3, #4]
 80023fa:	4798      	blx	r3
 80023fc:	2000      	movs	r0, #0
 80023fe:	bd08      	pop	{r3, pc}
 8002400:	2001      	movs	r0, #1
 8002402:	bd08      	pop	{r3, pc}

08002404 <I2C_MASTER_ClearFlag>:
 8002404:	6802      	ldr	r2, [r0, #0]
 8002406:	6cd3      	ldr	r3, [r2, #76]	; 0x4c
 8002408:	4319      	orrs	r1, r3
 800240a:	64d1      	str	r1, [r2, #76]	; 0x4c
 800240c:	4770      	bx	lr

0800240e <I2C_MASTER_AbortTransmit>:
 800240e:	6843      	ldr	r3, [r0, #4]
 8002410:	f893 1024 	ldrb.w	r1, [r3, #36]	; 0x24
 8002414:	6803      	ldr	r3, [r0, #0]
 8002416:	6cda      	ldr	r2, [r3, #76]	; 0x4c
 8002418:	f042 0202 	orr.w	r2, r2, #2
 800241c:	64da      	str	r2, [r3, #76]	; 0x4c
 800241e:	2901      	cmp	r1, #1
 8002420:	f04f 0202 	mov.w	r2, #2
 8002424:	669a      	str	r2, [r3, #104]	; 0x68
 8002426:	bf94      	ite	ls
 8002428:	2000      	movls	r0, #0
 800242a:	2001      	movhi	r0, #1
 800242c:	4770      	bx	lr

0800242e <I2C_MASTER_Transmit>:
 800242e:	e92d 43f8 	stmdb	sp!, {r3, r4, r5, r6, r7, r8, r9, lr}
 8002432:	461d      	mov	r5, r3
 8002434:	6843      	ldr	r3, [r0, #4]
 8002436:	9f08      	ldr	r7, [sp, #32]
 8002438:	f893 3024 	ldrb.w	r3, [r3, #36]	; 0x24
 800243c:	f89d 8024 	ldrb.w	r8, [sp, #36]	; 0x24
 8002440:	2b01      	cmp	r3, #1
 8002442:	4604      	mov	r4, r0
 8002444:	4616      	mov	r6, r2
 8002446:	d970      	bls.n	800252a <I2C_MASTER_Transmit+0xfc>
 8002448:	b921      	cbnz	r1, 8002454 <I2C_MASTER_Transmit+0x26>
 800244a:	6883      	ldr	r3, [r0, #8]
 800244c:	f893 3028 	ldrb.w	r3, [r3, #40]	; 0x28
 8002450:	2b00      	cmp	r3, #0
 8002452:	d06d      	beq.n	8002530 <I2C_MASTER_Transmit+0x102>
 8002454:	2d00      	cmp	r5, #0
 8002456:	d06b      	beq.n	8002530 <I2C_MASTER_Transmit+0x102>
 8002458:	2f00      	cmp	r7, #0
 800245a:	d069      	beq.n	8002530 <I2C_MASTER_Transmit+0x102>
 800245c:	b1f1      	cbz	r1, 800249c <I2C_MASTER_Transmit+0x6e>
 800245e:	68a3      	ldr	r3, [r4, #8]
 8002460:	f893 3028 	ldrb.w	r3, [r3, #40]	; 0x28
 8002464:	f003 02ff 	and.w	r2, r3, #255	; 0xff
 8002468:	b9c3      	cbnz	r3, 800249c <I2C_MASTER_Transmit+0x6e>
 800246a:	4620      	mov	r0, r4
 800246c:	4631      	mov	r1, r6
 800246e:	f7ff ffa1 	bl	80023b4 <I2C_MASTER_lSendStart_Or_RepeatedStart>
 8002472:	6823      	ldr	r3, [r4, #0]
 8002474:	6c9a      	ldr	r2, [r3, #72]	; 0x48
 8002476:	f412 7f08 	tst.w	r2, #544	; 0x220
 800247a:	d0fb      	beq.n	8002474 <I2C_MASTER_Transmit+0x46>
 800247c:	6c9b      	ldr	r3, [r3, #72]	; 0x48
 800247e:	0698      	lsls	r0, r3, #26
 8002480:	d507      	bpl.n	8002492 <I2C_MASTER_Transmit+0x64>
 8002482:	4620      	mov	r0, r4
 8002484:	2120      	movs	r1, #32
 8002486:	f7ff ffbd 	bl	8002404 <I2C_MASTER_ClearFlag>
 800248a:	4620      	mov	r0, r4
 800248c:	f7ff ffbf 	bl	800240e <I2C_MASTER_AbortTransmit>
 8002490:	e04e      	b.n	8002530 <I2C_MASTER_Transmit+0x102>
 8002492:	4620      	mov	r0, r4
 8002494:	f44f 7100 	mov.w	r1, #512	; 0x200
 8002498:	f7ff ffb4 	bl	8002404 <I2C_MASTER_ClearFlag>
 800249c:	6863      	ldr	r3, [r4, #4]
 800249e:	f893 3026 	ldrb.w	r3, [r3, #38]	; 0x26
 80024a2:	bb0b      	cbnz	r3, 80024e8 <I2C_MASTER_Transmit+0xba>
 80024a4:	442f      	add	r7, r5
 80024a6:	42bd      	cmp	r5, r7
 80024a8:	d017      	beq.n	80024da <I2C_MASTER_Transmit+0xac>
 80024aa:	6820      	ldr	r0, [r4, #0]
 80024ac:	f815 1b01 	ldrb.w	r1, [r5], #1
 80024b0:	f7ff f928 	bl	8001704 <XMC_I2C_CH_MasterTransmit>
 80024b4:	6823      	ldr	r3, [r4, #0]
 80024b6:	6c9a      	ldr	r2, [r3, #72]	; 0x48
 80024b8:	f412 7f08 	tst.w	r2, #544	; 0x220
 80024bc:	d0fb      	beq.n	80024b6 <I2C_MASTER_Transmit+0x88>
 80024be:	6c9b      	ldr	r3, [r3, #72]	; 0x48
 80024c0:	0699      	lsls	r1, r3, #26
 80024c2:	d4de      	bmi.n	8002482 <I2C_MASTER_Transmit+0x54>
 80024c4:	4620      	mov	r0, r4
 80024c6:	f44f 7100 	mov.w	r1, #512	; 0x200
 80024ca:	f7ff ff9b 	bl	8002404 <I2C_MASTER_ClearFlag>
 80024ce:	e7ea      	b.n	80024a6 <I2C_MASTER_Transmit+0x78>
 80024d0:	6822      	ldr	r2, [r4, #0]
 80024d2:	f8d2 3114 	ldr.w	r3, [r2, #276]	; 0x114
 80024d6:	051b      	lsls	r3, r3, #20
 80024d8:	d5fb      	bpl.n	80024d2 <I2C_MASTER_Transmit+0xa4>
 80024da:	2500      	movs	r5, #0
 80024dc:	f1b8 0f00 	cmp.w	r8, #0
 80024e0:	d116      	bne.n	8002510 <I2C_MASTER_Transmit+0xe2>
 80024e2:	4640      	mov	r0, r8
 80024e4:	e8bd 83f8 	ldmia.w	sp!, {r3, r4, r5, r6, r7, r8, r9, pc}
 80024e8:	2300      	movs	r3, #0
 80024ea:	42bb      	cmp	r3, r7
 80024ec:	d2f0      	bcs.n	80024d0 <I2C_MASTER_Transmit+0xa2>
 80024ee:	18ee      	adds	r6, r5, r3
 80024f0:	eb05 0907 	add.w	r9, r5, r7
 80024f4:	6820      	ldr	r0, [r4, #0]
 80024f6:	f8d0 2114 	ldr.w	r2, [r0, #276]	; 0x114
 80024fa:	04d2      	lsls	r2, r2, #19
 80024fc:	eba6 0305 	sub.w	r3, r6, r5
 8002500:	d4f3      	bmi.n	80024ea <I2C_MASTER_Transmit+0xbc>
 8002502:	454e      	cmp	r6, r9
 8002504:	d0f1      	beq.n	80024ea <I2C_MASTER_Transmit+0xbc>
 8002506:	f816 1b01 	ldrb.w	r1, [r6], #1
 800250a:	f7ff f8fb 	bl	8001704 <XMC_I2C_CH_MasterTransmit>
 800250e:	e7f1      	b.n	80024f4 <I2C_MASTER_Transmit+0xc6>
 8002510:	68a3      	ldr	r3, [r4, #8]
 8002512:	6820      	ldr	r0, [r4, #0]
 8002514:	f883 5028 	strb.w	r5, [r3, #40]	; 0x28
 8002518:	6cc3      	ldr	r3, [r0, #76]	; 0x4c
 800251a:	f043 0310 	orr.w	r3, r3, #16
 800251e:	64c3      	str	r3, [r0, #76]	; 0x4c
 8002520:	f7ff f8da 	bl	80016d8 <XMC_I2C_CH_MasterStop>
 8002524:	4628      	mov	r0, r5
 8002526:	e8bd 83f8 	ldmia.w	sp!, {r3, r4, r5, r6, r7, r8, r9, pc}
 800252a:	2002      	movs	r0, #2
 800252c:	e8bd 83f8 	ldmia.w	sp!, {r3, r4, r5, r6, r7, r8, r9, pc}
 8002530:	2001      	movs	r0, #1
 8002532:	e8bd 83f8 	ldmia.w	sp!, {r3, r4, r5, r6, r7, r8, r9, pc}

08002536 <I2C_MASTER_Receive>:
 8002536:	e92d 4ff7 	stmdb	sp!, {r0, r1, r2, r4, r5, r6, r7, r8, r9, sl, fp, lr}
 800253a:	461e      	mov	r6, r3
 800253c:	6843      	ldr	r3, [r0, #4]
 800253e:	9f0c      	ldr	r7, [sp, #48]	; 0x30
 8002540:	f893 3025 	ldrb.w	r3, [r3, #37]	; 0x25
 8002544:	f89d 9034 	ldrb.w	r9, [sp, #52]	; 0x34
 8002548:	f89d a038 	ldrb.w	sl, [sp, #56]	; 0x38
 800254c:	2b01      	cmp	r3, #1
 800254e:	4604      	mov	r4, r0
 8002550:	f240 808f 	bls.w	8002672 <I2C_MASTER_Receive+0x13c>
 8002554:	b929      	cbnz	r1, 8002562 <I2C_MASTER_Receive+0x2c>
 8002556:	6883      	ldr	r3, [r0, #8]
 8002558:	f893 3028 	ldrb.w	r3, [r3, #40]	; 0x28
 800255c:	2b00      	cmp	r3, #0
 800255e:	f000 808a 	beq.w	8002676 <I2C_MASTER_Receive+0x140>
 8002562:	2e00      	cmp	r6, #0
 8002564:	f000 8087 	beq.w	8002676 <I2C_MASTER_Receive+0x140>
 8002568:	2f00      	cmp	r7, #0
 800256a:	f000 8084 	beq.w	8002676 <I2C_MASTER_Receive+0x140>
 800256e:	b1c1      	cbz	r1, 80025a2 <I2C_MASTER_Receive+0x6c>
 8002570:	4611      	mov	r1, r2
 8002572:	4620      	mov	r0, r4
 8002574:	2201      	movs	r2, #1
 8002576:	f7ff ff1d 	bl	80023b4 <I2C_MASTER_lSendStart_Or_RepeatedStart>
 800257a:	6823      	ldr	r3, [r4, #0]
 800257c:	6c9a      	ldr	r2, [r3, #72]	; 0x48
 800257e:	f412 7f08 	tst.w	r2, #544	; 0x220
 8002582:	d0fb      	beq.n	800257c <I2C_MASTER_Receive+0x46>
 8002584:	6c9b      	ldr	r3, [r3, #72]	; 0x48
 8002586:	0699      	lsls	r1, r3, #26
 8002588:	4620      	mov	r0, r4
 800258a:	d506      	bpl.n	800259a <I2C_MASTER_Receive+0x64>
 800258c:	2120      	movs	r1, #32
 800258e:	f7ff ff39 	bl	8002404 <I2C_MASTER_ClearFlag>
 8002592:	4620      	mov	r0, r4
 8002594:	f7ff ff3b 	bl	800240e <I2C_MASTER_AbortTransmit>
 8002598:	e06d      	b.n	8002676 <I2C_MASTER_Receive+0x140>
 800259a:	f44f 7100 	mov.w	r1, #512	; 0x200
 800259e:	f7ff ff31 	bl	8002404 <I2C_MASTER_ClearFlag>
 80025a2:	6863      	ldr	r3, [r4, #4]
 80025a4:	f893 5026 	ldrb.w	r5, [r3, #38]	; 0x26
 80025a8:	bb55      	cbnz	r5, 8002600 <I2C_MASTER_Receive+0xca>
 80025aa:	3e01      	subs	r6, #1
 80025ac:	3501      	adds	r5, #1
 80025ae:	42bd      	cmp	r5, r7
 80025b0:	6820      	ldr	r0, [r4, #0]
 80025b2:	d105      	bne.n	80025c0 <I2C_MASTER_Receive+0x8a>
 80025b4:	f1ba 0f00 	cmp.w	sl, #0
 80025b8:	d002      	beq.n	80025c0 <I2C_MASTER_Receive+0x8a>
 80025ba:	f7ff f8cb 	bl	8001754 <XMC_I2C_CH_MasterReceiveNack>
 80025be:	e001      	b.n	80025c4 <I2C_MASTER_Receive+0x8e>
 80025c0:	f7ff f8b2 	bl	8001728 <XMC_I2C_CH_MasterReceiveAck>
 80025c4:	6823      	ldr	r3, [r4, #0]
 80025c6:	6c9a      	ldr	r2, [r3, #72]	; 0x48
 80025c8:	0412      	lsls	r2, r2, #16
 80025ca:	d402      	bmi.n	80025d2 <I2C_MASTER_Receive+0x9c>
 80025cc:	6c9a      	ldr	r2, [r3, #72]	; 0x48
 80025ce:	0450      	lsls	r0, r2, #17
 80025d0:	d5f9      	bpl.n	80025c6 <I2C_MASTER_Receive+0x90>
 80025d2:	4620      	mov	r0, r4
 80025d4:	f44f 4100 	mov.w	r1, #32768	; 0x8000
 80025d8:	f7ff ff14 	bl	8002404 <I2C_MASTER_ClearFlag>
 80025dc:	4620      	mov	r0, r4
 80025de:	f44f 4180 	mov.w	r1, #16384	; 0x4000
 80025e2:	f7ff ff0f 	bl	8002404 <I2C_MASTER_ClearFlag>
 80025e6:	6820      	ldr	r0, [r4, #0]
 80025e8:	f7ff f8ca 	bl	8001780 <XMC_I2C_CH_GetReceivedData>
 80025ec:	42bd      	cmp	r5, r7
 80025ee:	f806 0f01 	strb.w	r0, [r6, #1]!
 80025f2:	d1db      	bne.n	80025ac <I2C_MASTER_Receive+0x76>
 80025f4:	2500      	movs	r5, #0
 80025f6:	f1b9 0f00 	cmp.w	r9, #0
 80025fa:	d12e      	bne.n	800265a <I2C_MASTER_Receive+0x124>
 80025fc:	4648      	mov	r0, r9
 80025fe:	e03b      	b.n	8002678 <I2C_MASTER_Receive+0x142>
 8002600:	f04f 0800 	mov.w	r8, #0
 8002604:	46c3      	mov	fp, r8
 8002606:	45b8      	cmp	r8, r7
 8002608:	d2f4      	bcs.n	80025f4 <I2C_MASTER_Receive+0xbe>
 800260a:	4645      	mov	r5, r8
 800260c:	6820      	ldr	r0, [r4, #0]
 800260e:	f8d0 3114 	ldr.w	r3, [r0, #276]	; 0x114
 8002612:	04d9      	lsls	r1, r3, #19
 8002614:	d401      	bmi.n	800261a <I2C_MASTER_Receive+0xe4>
 8002616:	42bd      	cmp	r5, r7
 8002618:	d303      	bcc.n	8002622 <I2C_MASTER_Receive+0xec>
 800261a:	46a8      	mov	r8, r5
 800261c:	eb06 030b 	add.w	r3, r6, fp
 8002620:	e017      	b.n	8002652 <I2C_MASTER_Receive+0x11c>
 8002622:	3501      	adds	r5, #1
 8002624:	42bd      	cmp	r5, r7
 8002626:	d105      	bne.n	8002634 <I2C_MASTER_Receive+0xfe>
 8002628:	f1ba 0f00 	cmp.w	sl, #0
 800262c:	d002      	beq.n	8002634 <I2C_MASTER_Receive+0xfe>
 800262e:	f7ff f891 	bl	8001754 <XMC_I2C_CH_MasterReceiveNack>
 8002632:	e7eb      	b.n	800260c <I2C_MASTER_Receive+0xd6>
 8002634:	f7ff f878 	bl	8001728 <XMC_I2C_CH_MasterReceiveAck>
 8002638:	e7e8      	b.n	800260c <I2C_MASTER_Receive+0xd6>
 800263a:	f8d0 2114 	ldr.w	r2, [r0, #276]	; 0x114
 800263e:	0712      	lsls	r2, r2, #28
 8002640:	d4fb      	bmi.n	800263a <I2C_MASTER_Receive+0x104>
 8002642:	9301      	str	r3, [sp, #4]
 8002644:	f7ff f89c 	bl	8001780 <XMC_I2C_CH_GetReceivedData>
 8002648:	9b01      	ldr	r3, [sp, #4]
 800264a:	f803 0b01 	strb.w	r0, [r3], #1
 800264e:	f10b 0b01 	add.w	fp, fp, #1
 8002652:	45ab      	cmp	fp, r5
 8002654:	d2d7      	bcs.n	8002606 <I2C_MASTER_Receive+0xd0>
 8002656:	6820      	ldr	r0, [r4, #0]
 8002658:	e7ef      	b.n	800263a <I2C_MASTER_Receive+0x104>
 800265a:	68a3      	ldr	r3, [r4, #8]
 800265c:	6820      	ldr	r0, [r4, #0]
 800265e:	f883 5028 	strb.w	r5, [r3, #40]	; 0x28
 8002662:	6cc3      	ldr	r3, [r0, #76]	; 0x4c
 8002664:	f043 0310 	orr.w	r3, r3, #16
 8002668:	64c3      	str	r3, [r0, #76]	; 0x4c
 800266a:	f7ff f835 	bl	80016d8 <XMC_I2C_CH_MasterStop>
 800266e:	4628      	mov	r0, r5
 8002670:	e002      	b.n	8002678 <I2C_MASTER_Receive+0x142>
 8002672:	2002      	movs	r0, #2
 8002674:	e000      	b.n	8002678 <I2C_MASTER_Receive+0x142>
 8002676:	2001      	movs	r0, #1
 8002678:	b003      	add	sp, #12
 800267a:	e8bd 8ff0 	ldmia.w	sp!, {r4, r5, r6, r7, r8, r9, sl, fp, pc}
	...

08002680 <I2C_MASTER_0_disable_io>:
 8002680:	b508      	push	{r3, lr}
 8002682:	4806      	ldr	r0, [pc, #24]	; (800269c <I2C_MASTER_0_disable_io+0x1c>)
 8002684:	2105      	movs	r1, #5
 8002686:	2200      	movs	r2, #0
 8002688:	f7fe ff79 	bl	800157e <XMC_GPIO_SetMode>
 800268c:	2100      	movs	r1, #0
 800268e:	4804      	ldr	r0, [pc, #16]	; (80026a0 <I2C_MASTER_0_disable_io+0x20>)
 8002690:	460a      	mov	r2, r1
 8002692:	e8bd 4008 	ldmia.w	sp!, {r3, lr}
 8002696:	f7fe bf72 	b.w	800157e <XMC_GPIO_SetMode>
 800269a:	bf00      	nop
 800269c:	48028200 	.word	0x48028200
 80026a0:	48028300 	.word	0x48028300

080026a4 <I2C_MASTER_0_enable_io>:
 80026a4:	b508      	push	{r3, lr}
 80026a6:	4806      	ldr	r0, [pc, #24]	; (80026c0 <I2C_MASTER_0_enable_io+0x1c>)
 80026a8:	2105      	movs	r1, #5
 80026aa:	22d0      	movs	r2, #208	; 0xd0
 80026ac:	f7fe ff67 	bl	800157e <XMC_GPIO_SetMode>
 80026b0:	4804      	ldr	r0, [pc, #16]	; (80026c4 <I2C_MASTER_0_enable_io+0x20>)
 80026b2:	2100      	movs	r1, #0
 80026b4:	22d0      	movs	r2, #208	; 0xd0
 80026b6:	e8bd 4008 	ldmia.w	sp!, {r3, lr}
 80026ba:	f7fe bf60 	b.w	800157e <XMC_GPIO_SetMode>
 80026be:	bf00      	nop
 80026c0:	48028200 	.word	0x48028200
 80026c4:	48028300 	.word	0x48028300

080026c8 <I2C_MASTER_0_init>:
 80026c8:	b510      	push	{r4, lr}
 80026ca:	4c20      	ldr	r4, [pc, #128]	; (800274c <I2C_MASTER_0_init+0x84>)
 80026cc:	4920      	ldr	r1, [pc, #128]	; (8002750 <I2C_MASTER_0_init+0x88>)
 80026ce:	4620      	mov	r0, r4
 80026d0:	2201      	movs	r2, #1
 80026d2:	f7fe ffb3 	bl	800163c <XMC_I2C_CH_InitEx>
 80026d6:	69e3      	ldr	r3, [r4, #28]
 80026d8:	f023 0307 	bic.w	r3, r3, #7
 80026dc:	f043 0301 	orr.w	r3, r3, #1
 80026e0:	61e3      	str	r3, [r4, #28]
 80026e2:	6a23      	ldr	r3, [r4, #32]
 80026e4:	f023 0307 	bic.w	r3, r3, #7
 80026e8:	f043 0301 	orr.w	r3, r3, #1
 80026ec:	6223      	str	r3, [r4, #32]
 80026ee:	69e3      	ldr	r3, [r4, #28]
 80026f0:	f043 0320 	orr.w	r3, r3, #32
 80026f4:	61e3      	str	r3, [r4, #28]
 80026f6:	69e3      	ldr	r3, [r4, #28]
 80026f8:	f043 0340 	orr.w	r3, r3, #64	; 0x40
 80026fc:	61e3      	str	r3, [r4, #28]
 80026fe:	6a23      	ldr	r3, [r4, #32]
 8002700:	f043 0320 	orr.w	r3, r3, #32
 8002704:	6223      	str	r3, [r4, #32]
 8002706:	6a23      	ldr	r3, [r4, #32]
 8002708:	f043 0340 	orr.w	r3, r3, #64	; 0x40
 800270c:	6223      	str	r3, [r4, #32]
 800270e:	4620      	mov	r0, r4
 8002710:	2110      	movs	r1, #16
 8002712:	2204      	movs	r2, #4
 8002714:	2301      	movs	r3, #1
 8002716:	f7ff f92f 	bl	8001978 <XMC_USIC_CH_TXFIFO_Configure>
 800271a:	4620      	mov	r0, r4
 800271c:	2100      	movs	r1, #0
 800271e:	2204      	movs	r2, #4
 8002720:	230f      	movs	r3, #15
 8002722:	f7ff f93f 	bl	80019a4 <XMC_USIC_CH_RXFIFO_Configure>
 8002726:	6c23      	ldr	r3, [r4, #64]	; 0x40
 8002728:	480a      	ldr	r0, [pc, #40]	; (8002754 <I2C_MASTER_0_init+0x8c>)
 800272a:	4a0b      	ldr	r2, [pc, #44]	; (8002758 <I2C_MASTER_0_init+0x90>)
 800272c:	f023 030f 	bic.w	r3, r3, #15
 8002730:	f043 0304 	orr.w	r3, r3, #4
 8002734:	6423      	str	r3, [r4, #64]	; 0x40
 8002736:	2105      	movs	r1, #5
 8002738:	f7fe fab0 	bl	8000c9c <XMC_GPIO_Init>
 800273c:	4807      	ldr	r0, [pc, #28]	; (800275c <I2C_MASTER_0_init+0x94>)
 800273e:	4a08      	ldr	r2, [pc, #32]	; (8002760 <I2C_MASTER_0_init+0x98>)
 8002740:	2100      	movs	r1, #0
 8002742:	e8bd 4010 	ldmia.w	sp!, {r4, lr}
 8002746:	f7fe baa9 	b.w	8000c9c <XMC_GPIO_Init>
 800274a:	bf00      	nop
 800274c:	40030200 	.word	0x40030200
 8002750:	0800381c 	.word	0x0800381c
 8002754:	48028200 	.word	0x48028200
 8002758:	080037d8 	.word	0x080037d8
 800275c:	48028300 	.word	0x48028300
 8002760:	080037e4 	.word	0x080037e4

08002764 <GLOBAL_CCU4_Init>:
 8002764:	7b43      	ldrb	r3, [r0, #13]
 8002766:	b510      	push	{r4, lr}
 8002768:	4604      	mov	r4, r0
 800276a:	b94b      	cbnz	r3, 8002780 <GLOBAL_CCU4_Init+0x1c>
 800276c:	6880      	ldr	r0, [r0, #8]
 800276e:	7b21      	ldrb	r1, [r4, #12]
 8002770:	f7fe fea8 	bl	80014c4 <XMC_CCU4_Init>
 8002774:	68a3      	ldr	r3, [r4, #8]
 8002776:	f44f 7280 	mov.w	r2, #256	; 0x100
 800277a:	60da      	str	r2, [r3, #12]
 800277c:	2301      	movs	r3, #1
 800277e:	7363      	strb	r3, [r4, #13]
 8002780:	2000      	movs	r0, #0
 8002782:	bd10      	pop	{r4, pc}

08002784 <GLOBAL_CAN_Init>:
 8002784:	7a43      	ldrb	r3, [r0, #9]
 8002786:	b510      	push	{r4, lr}
 8002788:	4604      	mov	r4, r0
 800278a:	b933      	cbnz	r3, 800279a <GLOBAL_CAN_Init+0x16>
 800278c:	6840      	ldr	r0, [r0, #4]
 800278e:	6822      	ldr	r2, [r4, #0]
 8002790:	2101      	movs	r1, #1
 8002792:	f7fe fddb 	bl	800134c <XMC_CAN_InitEx>
 8002796:	2301      	movs	r3, #1
 8002798:	7263      	strb	r3, [r4, #9]
 800279a:	2000      	movs	r0, #0
 800279c:	bd10      	pop	{r4, pc}

0800279e <GLOBAL_ADC_Init>:
 800279e:	b5f8      	push	{r3, r4, r5, r6, r7, lr}
 80027a0:	7c03      	ldrb	r3, [r0, #16]
 80027a2:	2b02      	cmp	r3, #2
 80027a4:	4604      	mov	r4, r0
 80027a6:	d129      	bne.n	80027fc <GLOBAL_ADC_Init+0x5e>
 80027a8:	68c0      	ldr	r0, [r0, #12]
 80027aa:	68a1      	ldr	r1, [r4, #8]
 80027ac:	f7ff f98f 	bl	8001ace <XMC_VADC_GLOBAL_Init>
 80027b0:	1f26      	subs	r6, r4, #4
 80027b2:	2700      	movs	r7, #0
 80027b4:	f856 3f04 	ldr.w	r3, [r6, #4]!
 80027b8:	e893 0003 	ldmia.w	r3, {r0, r1}
 80027bc:	f7ff fa03 	bl	8001bc6 <XMC_VADC_GROUP_Init>
 80027c0:	6833      	ldr	r3, [r6, #0]
 80027c2:	2103      	movs	r1, #3
 80027c4:	6818      	ldr	r0, [r3, #0]
 80027c6:	f7ff fa40 	bl	8001c4a <XMC_VADC_GROUP_SetPowerMode>
 80027ca:	6831      	ldr	r1, [r6, #0]
 80027cc:	7a0b      	ldrb	r3, [r1, #8]
 80027ce:	b94b      	cbnz	r3, 80027e4 <GLOBAL_ADC_Init+0x46>
 80027d0:	68e0      	ldr	r0, [r4, #12]
 80027d2:	f107 0510 	add.w	r5, r7, #16
 80027d6:	f8d0 2080 	ldr.w	r2, [r0, #128]	; 0x80
 80027da:	2301      	movs	r3, #1
 80027dc:	40ab      	lsls	r3, r5
 80027de:	4313      	orrs	r3, r2
 80027e0:	f8c0 3080 	str.w	r3, [r0, #128]	; 0x80
 80027e4:	2300      	movs	r3, #0
 80027e6:	724b      	strb	r3, [r1, #9]
 80027e8:	461d      	mov	r5, r3
 80027ea:	b90f      	cbnz	r7, 80027f0 <GLOBAL_ADC_Init+0x52>
 80027ec:	2701      	movs	r7, #1
 80027ee:	e7e1      	b.n	80027b4 <GLOBAL_ADC_Init+0x16>
 80027f0:	7c63      	ldrb	r3, [r4, #17]
 80027f2:	b113      	cbz	r3, 80027fa <GLOBAL_ADC_Init+0x5c>
 80027f4:	68e0      	ldr	r0, [r4, #12]
 80027f6:	f7ff f98f 	bl	8001b18 <XMC_VADC_GLOBAL_StartupCalibration>
 80027fa:	7425      	strb	r5, [r4, #16]
 80027fc:	7c20      	ldrb	r0, [r4, #16]
 80027fe:	bdf8      	pop	{r3, r4, r5, r6, r7, pc}

08002800 <DIGITAL_IO_Init>:
 8002800:	b510      	push	{r4, lr}
 8002802:	4604      	mov	r4, r0
 8002804:	1d22      	adds	r2, r4, #4
 8002806:	7c21      	ldrb	r1, [r4, #16]
 8002808:	6800      	ldr	r0, [r0, #0]
 800280a:	f7fe fa47 	bl	8000c9c <XMC_GPIO_Init>
 800280e:	6820      	ldr	r0, [r4, #0]
 8002810:	7c21      	ldrb	r1, [r4, #16]
 8002812:	7c62      	ldrb	r2, [r4, #17]
 8002814:	f7fe fec5 	bl	80015a2 <XMC_GPIO_SetHardwareControl>
 8002818:	2000      	movs	r0, #0
 800281a:	bd10      	pop	{r4, pc}

0800281c <SystemCoreSetup>:
 800281c:	4b19      	ldr	r3, [pc, #100]	; (8002884 <SystemCoreSetup+0x68>)
 800281e:	4a1a      	ldr	r2, [pc, #104]	; (8002888 <SystemCoreSetup+0x6c>)
 8002820:	68d9      	ldr	r1, [r3, #12]
 8002822:	f421 61e0 	bic.w	r1, r1, #1792	; 0x700
 8002826:	0409      	lsls	r1, r1, #16
 8002828:	0c09      	lsrs	r1, r1, #16
 800282a:	430a      	orrs	r2, r1
 800282c:	60da      	str	r2, [r3, #12]
 800282e:	b672      	cpsid	i
 8002830:	4a16      	ldr	r2, [pc, #88]	; (800288c <SystemCoreSetup+0x70>)
 8002832:	609a      	str	r2, [r3, #8]
 8002834:	f3bf 8f4f 	dsb	sy
 8002838:	b662      	cpsie	i
 800283a:	f8d3 2088 	ldr.w	r2, [r3, #136]	; 0x88
 800283e:	4814      	ldr	r0, [pc, #80]	; (8002890 <SystemCoreSetup+0x74>)
 8002840:	f442 0270 	orr.w	r2, r2, #15728640	; 0xf00000
 8002844:	f241 0114 	movw	r1, #4116	; 0x1014
 8002848:	f8c3 2088 	str.w	r2, [r3, #136]	; 0x88
 800284c:	5842      	ldr	r2, [r0, r1]
 800284e:	f022 020f 	bic.w	r2, r2, #15
 8002852:	f042 0202 	orr.w	r2, r2, #2
 8002856:	5042      	str	r2, [r0, r1]
 8002858:	695a      	ldr	r2, [r3, #20]
 800285a:	f022 0210 	bic.w	r2, r2, #16
 800285e:	615a      	str	r2, [r3, #20]
 8002860:	695a      	ldr	r2, [r3, #20]
 8002862:	f022 0208 	bic.w	r2, r2, #8
 8002866:	615a      	str	r2, [r3, #20]
 8002868:	6a5a      	ldr	r2, [r3, #36]	; 0x24
 800286a:	f422 3280 	bic.w	r2, r2, #65536	; 0x10000
 800286e:	625a      	str	r2, [r3, #36]	; 0x24
 8002870:	6a5a      	ldr	r2, [r3, #36]	; 0x24
 8002872:	f422 3200 	bic.w	r2, r2, #131072	; 0x20000
 8002876:	625a      	str	r2, [r3, #36]	; 0x24
 8002878:	6a5a      	ldr	r2, [r3, #36]	; 0x24
 800287a:	f422 2280 	bic.w	r2, r2, #262144	; 0x40000
 800287e:	625a      	str	r2, [r3, #36]	; 0x24
 8002880:	4770      	bx	lr
 8002882:	bf00      	nop
 8002884:	e000ed00 	.word	0xe000ed00
 8002888:	05fa0100 	.word	0x05fa0100
 800288c:	08000000 	.word	0x08000000
 8002890:	58001000 	.word	0x58001000

08002894 <CLOCK_XMC4_Init>:
 8002894:	2301      	movs	r3, #1
 8002896:	7003      	strb	r3, [r0, #0]
 8002898:	2000      	movs	r0, #0
 800289a:	4770      	bx	lr

0800289c <OSCHP_GetFrequency>:
 800289c:	4800      	ldr	r0, [pc, #0]	; (80028a0 <OSCHP_GetFrequency+0x4>)
 800289e:	4770      	bx	lr
 80028a0:	00b71b00 	.word	0x00b71b00

080028a4 <SystemCoreClockSetup>:
 80028a4:	b530      	push	{r4, r5, lr}
 80028a6:	4d10      	ldr	r5, [pc, #64]	; (80028e8 <SystemCoreClockSetup+0x44>)
 80028a8:	cd0f      	ldmia	r5!, {r0, r1, r2, r3}
 80028aa:	b087      	sub	sp, #28
 80028ac:	ac01      	add	r4, sp, #4
 80028ae:	c40f      	stmia	r4!, {r0, r1, r2, r3}
 80028b0:	682b      	ldr	r3, [r5, #0]
 80028b2:	6023      	str	r3, [r4, #0]
 80028b4:	a801      	add	r0, sp, #4
 80028b6:	f7fe fc89 	bl	80011cc <XMC_SCU_CLOCK_Init>
 80028ba:	2000      	movs	r0, #0
 80028bc:	f7fe fa96 	bl	8000dec <XMC_SCU_HIB_SetRtcClockSource>
 80028c0:	2000      	movs	r0, #0
 80028c2:	f7fe fa6f 	bl	8000da4 <XMC_SCU_CLOCK_SetUsbClockSource>
 80028c6:	2004      	movs	r0, #4
 80028c8:	f7fe fad8 	bl	8000e7c <XMC_SCU_CLOCK_SetUsbClockDivider>
 80028cc:	f7fe fb08 	bl	8000ee0 <XMC_SCU_CLOCK_EnableUsbPll>
 80028d0:	2120      	movs	r1, #32
 80028d2:	2001      	movs	r0, #1
 80028d4:	f7fe fb0e 	bl	8000ef4 <XMC_SCU_CLOCK_StartUsbPll>
 80028d8:	2000      	movs	r0, #0
 80028da:	f7fe fa6d 	bl	8000db8 <XMC_SCU_CLOCK_SetWdtClockSource>
 80028de:	2001      	movs	r0, #1
 80028e0:	f7fe fad6 	bl	8000e90 <XMC_SCU_CLOCK_SetWdtClockDivider>
 80028e4:	b007      	add	sp, #28
 80028e6:	bd30      	pop	{r4, r5, pc}
 80028e8:	08003878 	.word	0x08003878

080028ec <CAN_NODE_MO_Init>:
 80028ec:	b510      	push	{r4, lr}
 80028ee:	4604      	mov	r4, r0
 80028f0:	6800      	ldr	r0, [r0, #0]
 80028f2:	f7fe fd6b 	bl	80013cc <XMC_CAN_MO_Config>
 80028f6:	79e3      	ldrb	r3, [r4, #7]
 80028f8:	b163      	cbz	r3, 8002914 <CAN_NODE_MO_Init+0x28>
 80028fa:	6823      	ldr	r3, [r4, #0]
 80028fc:	7961      	ldrb	r1, [r4, #5]
 80028fe:	681a      	ldr	r2, [r3, #0]
 8002900:	6893      	ldr	r3, [r2, #8]
 8002902:	f023 0370 	bic.w	r3, r3, #112	; 0x70
 8002906:	ea43 1301 	orr.w	r3, r3, r1, lsl #4
 800290a:	6093      	str	r3, [r2, #8]
 800290c:	6813      	ldr	r3, [r2, #0]
 800290e:	f443 3300 	orr.w	r3, r3, #131072	; 0x20000
 8002912:	6013      	str	r3, [r2, #0]
 8002914:	7a23      	ldrb	r3, [r4, #8]
 8002916:	b15b      	cbz	r3, 8002930 <CAN_NODE_MO_Init+0x44>
 8002918:	6823      	ldr	r3, [r4, #0]
 800291a:	681b      	ldr	r3, [r3, #0]
 800291c:	689a      	ldr	r2, [r3, #8]
 800291e:	f022 0107 	bic.w	r1, r2, #7
 8002922:	79a2      	ldrb	r2, [r4, #6]
 8002924:	430a      	orrs	r2, r1
 8002926:	609a      	str	r2, [r3, #8]
 8002928:	681a      	ldr	r2, [r3, #0]
 800292a:	f442 3280 	orr.w	r2, r2, #65536	; 0x10000
 800292e:	601a      	str	r2, [r3, #0]
 8002930:	bd10      	pop	{r4, pc}

08002932 <CAN_NODE_MO_Transmit>:
 8002932:	6800      	ldr	r0, [r0, #0]
 8002934:	f7fe bd8c 	b.w	8001450 <XMC_CAN_MO_Transmit>

08002938 <CAN_NODE_Init>:
 8002938:	e92d 43f8 	stmdb	sp!, {r3, r4, r5, r6, r7, r8, r9, lr}
 800293c:	f8d0 6090 	ldr.w	r6, [r0, #144]	; 0x90
 8002940:	4604      	mov	r4, r0
 8002942:	6800      	ldr	r0, [r0, #0]
 8002944:	f7ff ff1e 	bl	8002784 <GLOBAL_CAN_Init>
 8002948:	4605      	mov	r5, r0
 800294a:	b108      	cbz	r0, 8002950 <CAN_NODE_Init+0x18>
 800294c:	2501      	movs	r5, #1
 800294e:	e08c      	b.n	8002a6a <CAN_NODE_Init+0x132>
 8002950:	6860      	ldr	r0, [r4, #4]
 8002952:	68a1      	ldr	r1, [r4, #8]
 8002954:	f7fe fc8a 	bl	800126c <XMC_CAN_NODE_NominalBitTimeConfigureEx>
 8002958:	2800      	cmp	r0, #0
 800295a:	d1f7      	bne.n	800294c <CAN_NODE_Init+0x14>
 800295c:	6863      	ldr	r3, [r4, #4]
 800295e:	681a      	ldr	r2, [r3, #0]
 8002960:	f042 0240 	orr.w	r2, r2, #64	; 0x40
 8002964:	601a      	str	r2, [r3, #0]
 8002966:	681a      	ldr	r2, [r3, #0]
 8002968:	f042 0201 	orr.w	r2, r2, #1
 800296c:	601a      	str	r2, [r3, #0]
 800296e:	681a      	ldr	r2, [r3, #0]
 8002970:	f022 0280 	bic.w	r2, r2, #128	; 0x80
 8002974:	601a      	str	r2, [r3, #0]
 8002976:	f894 20a7 	ldrb.w	r2, [r4, #167]	; 0xa7
 800297a:	b122      	cbz	r2, 8002986 <CAN_NODE_Init+0x4e>
 800297c:	68da      	ldr	r2, [r3, #12]
 800297e:	f442 7280 	orr.w	r2, r2, #256	; 0x100
 8002982:	60da      	str	r2, [r3, #12]
 8002984:	e011      	b.n	80029aa <CAN_NODE_Init+0x72>
 8002986:	f8d4 3098 	ldr.w	r3, [r4, #152]	; 0x98
 800298a:	f8d4 209c 	ldr.w	r2, [r4, #156]	; 0x9c
 800298e:	7919      	ldrb	r1, [r3, #4]
 8002990:	6818      	ldr	r0, [r3, #0]
 8002992:	f7fe f983 	bl	8000c9c <XMC_GPIO_Init>
 8002996:	6861      	ldr	r1, [r4, #4]
 8002998:	f894 20a0 	ldrb.w	r2, [r4, #160]	; 0xa0
 800299c:	68cb      	ldr	r3, [r1, #12]
 800299e:	f002 0207 	and.w	r2, r2, #7
 80029a2:	f023 0307 	bic.w	r3, r3, #7
 80029a6:	4313      	orrs	r3, r2
 80029a8:	60cb      	str	r3, [r1, #12]
 80029aa:	6860      	ldr	r0, [r4, #4]
 80029ac:	f8d4 208c 	ldr.w	r2, [r4, #140]	; 0x8c
 80029b0:	6883      	ldr	r3, [r0, #8]
 80029b2:	f023 0107 	bic.w	r1, r3, #7
 80029b6:	7813      	ldrb	r3, [r2, #0]
 80029b8:	430b      	orrs	r3, r1
 80029ba:	6083      	str	r3, [r0, #8]
 80029bc:	6883      	ldr	r3, [r0, #8]
 80029be:	7851      	ldrb	r1, [r2, #1]
 80029c0:	f023 0370 	bic.w	r3, r3, #112	; 0x70
 80029c4:	ea43 1301 	orr.w	r3, r3, r1, lsl #4
 80029c8:	6083      	str	r3, [r0, #8]
 80029ca:	6883      	ldr	r3, [r0, #8]
 80029cc:	7891      	ldrb	r1, [r2, #2]
 80029ce:	f423 63e0 	bic.w	r3, r3, #1792	; 0x700
 80029d2:	ea43 2301 	orr.w	r3, r3, r1, lsl #8
 80029d6:	6083      	str	r3, [r0, #8]
 80029d8:	6883      	ldr	r3, [r0, #8]
 80029da:	78d2      	ldrb	r2, [r2, #3]
 80029dc:	f423 43e0 	bic.w	r3, r3, #28672	; 0x7000
 80029e0:	ea43 3302 	orr.w	r3, r3, r2, lsl #12
 80029e4:	6083      	str	r3, [r0, #8]
 80029e6:	f894 30a4 	ldrb.w	r3, [r4, #164]	; 0xa4
 80029ea:	2b00      	cmp	r3, #0
 80029ec:	f894 30a3 	ldrb.w	r3, [r4, #163]	; 0xa3
 80029f0:	bf0c      	ite	eq
 80029f2:	2100      	moveq	r1, #0
 80029f4:	2102      	movne	r1, #2
 80029f6:	b10b      	cbz	r3, 80029fc <CAN_NODE_Init+0xc4>
 80029f8:	f041 0104 	orr.w	r1, r1, #4
 80029fc:	f894 30a5 	ldrb.w	r3, [r4, #165]	; 0xa5
 8002a00:	b10b      	cbz	r3, 8002a06 <CAN_NODE_Init+0xce>
 8002a02:	f041 0108 	orr.w	r1, r1, #8
 8002a06:	f7fe fd33 	bl	8001470 <XMC_CAN_NODE_EnableEvent>
 8002a0a:	f894 30a6 	ldrb.w	r3, [r4, #166]	; 0xa6
 8002a0e:	b123      	cbz	r3, 8002a1a <CAN_NODE_Init+0xe2>
 8002a10:	6860      	ldr	r0, [r4, #4]
 8002a12:	f44f 0180 	mov.w	r1, #4194304	; 0x400000
 8002a16:	f7fe fd2b 	bl	8001470 <XMC_CAN_NODE_EnableEvent>
 8002a1a:	f104 0808 	add.w	r8, r4, #8
 8002a1e:	2700      	movs	r7, #0
 8002a20:	f894 30a2 	ldrb.w	r3, [r4, #162]	; 0xa2
 8002a24:	429f      	cmp	r7, r3
 8002a26:	d20e      	bcs.n	8002a46 <CAN_NODE_Init+0x10e>
 8002a28:	f858 9f04 	ldr.w	r9, [r8, #4]!
 8002a2c:	6823      	ldr	r3, [r4, #0]
 8002a2e:	f894 10a1 	ldrb.w	r1, [r4, #161]	; 0xa1
 8002a32:	6858      	ldr	r0, [r3, #4]
 8002a34:	f899 2004 	ldrb.w	r2, [r9, #4]
 8002a38:	f7fe fc67 	bl	800130a <XMC_CAN_AllocateMOtoNodeList>
 8002a3c:	4648      	mov	r0, r9
 8002a3e:	f7ff ff55 	bl	80028ec <CAN_NODE_MO_Init>
 8002a42:	3701      	adds	r7, #1
 8002a44:	e7ec      	b.n	8002a20 <CAN_NODE_Init+0xe8>
 8002a46:	6863      	ldr	r3, [r4, #4]
 8002a48:	681a      	ldr	r2, [r3, #0]
 8002a4a:	f022 0240 	bic.w	r2, r2, #64	; 0x40
 8002a4e:	601a      	str	r2, [r3, #0]
 8002a50:	681a      	ldr	r2, [r3, #0]
 8002a52:	f022 0201 	bic.w	r2, r2, #1
 8002a56:	601a      	str	r2, [r3, #0]
 8002a58:	f894 30a7 	ldrb.w	r3, [r4, #167]	; 0xa7
 8002a5c:	b92b      	cbnz	r3, 8002a6a <CAN_NODE_Init+0x132>
 8002a5e:	6830      	ldr	r0, [r6, #0]
 8002a60:	7931      	ldrb	r1, [r6, #4]
 8002a62:	f8d4 2094 	ldr.w	r2, [r4, #148]	; 0x94
 8002a66:	f7fe f919 	bl	8000c9c <XMC_GPIO_Init>
 8002a6a:	4628      	mov	r0, r5
 8002a6c:	e8bd 83f8 	ldmia.w	sp!, {r3, r4, r5, r6, r7, r8, r9, pc}

08002a70 <ADC_MEASUREMENT_Init>:
 8002a70:	b5f8      	push	{r3, r4, r5, r6, r7, lr}
 8002a72:	7e03      	ldrb	r3, [r0, #24]
 8002a74:	2b02      	cmp	r3, #2
 8002a76:	4604      	mov	r4, r0
 8002a78:	f040 808a 	bne.w	8002b90 <ADC_MEASUREMENT_Init+0x120>
 8002a7c:	68c0      	ldr	r0, [r0, #12]
 8002a7e:	f7ff fe8e 	bl	800279e <GLOBAL_ADC_Init>
 8002a82:	68e2      	ldr	r2, [r4, #12]
 8002a84:	68a3      	ldr	r3, [r4, #8]
 8002a86:	4605      	mov	r5, r0
 8002a88:	68d0      	ldr	r0, [r2, #12]
 8002a8a:	6819      	ldr	r1, [r3, #0]
 8002a8c:	2200      	movs	r2, #0
 8002a8e:	4613      	mov	r3, r2
 8002a90:	f7ff f836 	bl	8001b00 <XMC_VADC_GLOBAL_InputClassInit>
 8002a94:	68e3      	ldr	r3, [r4, #12]
 8002a96:	6861      	ldr	r1, [r4, #4]
 8002a98:	68d8      	ldr	r0, [r3, #12]
 8002a9a:	f7ff f8df 	bl	8001c5c <XMC_VADC_GLOBAL_BackgroundInit>
 8002a9e:	6823      	ldr	r3, [r4, #0]
 8002aa0:	681e      	ldr	r6, [r3, #0]
 8002aa2:	68b0      	ldr	r0, [r6, #8]
 8002aa4:	7b71      	ldrb	r1, [r6, #13]
 8002aa6:	6832      	ldr	r2, [r6, #0]
 8002aa8:	f7ff f928 	bl	8001cfc <XMC_VADC_GROUP_ChannelInit>
 8002aac:	6833      	ldr	r3, [r6, #0]
 8002aae:	6871      	ldr	r1, [r6, #4]
 8002ab0:	789b      	ldrb	r3, [r3, #2]
 8002ab2:	68b2      	ldr	r2, [r6, #8]
 8002ab4:	6809      	ldr	r1, [r1, #0]
 8002ab6:	f003 030f 	and.w	r3, r3, #15
 8002aba:	33a0      	adds	r3, #160	; 0xa0
 8002abc:	f842 1023 	str.w	r1, [r2, r3, lsl #2]
 8002ac0:	68e3      	ldr	r3, [r4, #12]
 8002ac2:	7b32      	ldrb	r2, [r6, #12]
 8002ac4:	68db      	ldr	r3, [r3, #12]
 8002ac6:	7b70      	ldrb	r0, [r6, #13]
 8002ac8:	eb03 0382 	add.w	r3, r3, r2, lsl #2
 8002acc:	2201      	movs	r2, #1
 8002ace:	f8d3 1180 	ldr.w	r1, [r3, #384]	; 0x180
 8002ad2:	4082      	lsls	r2, r0
 8002ad4:	430a      	orrs	r2, r1
 8002ad6:	f8c3 2180 	str.w	r2, [r3, #384]	; 0x180
 8002ada:	6863      	ldr	r3, [r4, #4]
 8002adc:	7a1b      	ldrb	r3, [r3, #8]
 8002ade:	071b      	lsls	r3, r3, #28
 8002ae0:	d548      	bpl.n	8002b74 <ADC_MEASUREMENT_Init+0x104>
 8002ae2:	6923      	ldr	r3, [r4, #16]
 8002ae4:	2b00      	cmp	r3, #0
 8002ae6:	d045      	beq.n	8002b74 <ADC_MEASUREMENT_Init+0x104>
 8002ae8:	4a2a      	ldr	r2, [pc, #168]	; (8002b94 <ADC_MEASUREMENT_Init+0x124>)
 8002aea:	681e      	ldr	r6, [r3, #0]
 8002aec:	68d1      	ldr	r1, [r2, #12]
 8002aee:	685a      	ldr	r2, [r3, #4]
 8002af0:	689b      	ldr	r3, [r3, #8]
 8002af2:	f3c1 2102 	ubfx	r1, r1, #8, #3
 8002af6:	f1c1 0c07 	rsb	ip, r1, #7
 8002afa:	f1bc 0f06 	cmp.w	ip, #6
 8002afe:	b2f7      	uxtb	r7, r6
 8002b00:	bf28      	it	cs
 8002b02:	f04f 0c06 	movcs.w	ip, #6
 8002b06:	b109      	cbz	r1, 8002b0c <ADC_MEASUREMENT_Init+0x9c>
 8002b08:	1e48      	subs	r0, r1, #1
 8002b0a:	e000      	b.n	8002b0e <ADC_MEASUREMENT_Init+0x9e>
 8002b0c:	4608      	mov	r0, r1
 8002b0e:	2101      	movs	r1, #1
 8002b10:	fa01 fe00 	lsl.w	lr, r1, r0
 8002b14:	f10e 3eff 	add.w	lr, lr, #4294967295
 8002b18:	fa01 f10c 	lsl.w	r1, r1, ip
 8002b1c:	ea0e 0e03 	and.w	lr, lr, r3
 8002b20:	1e4b      	subs	r3, r1, #1
 8002b22:	4013      	ands	r3, r2
 8002b24:	4083      	lsls	r3, r0
 8002b26:	b27a      	sxtb	r2, r7
 8002b28:	2a00      	cmp	r2, #0
 8002b2a:	ea4e 0303 	orr.w	r3, lr, r3
 8002b2e:	ea4f 0383 	mov.w	r3, r3, lsl #2
 8002b32:	bfad      	iteet	ge
 8002b34:	f102 4260 	addge.w	r2, r2, #3758096384	; 0xe0000000
 8002b38:	4a17      	ldrlt	r2, [pc, #92]	; (8002b98 <ADC_MEASUREMENT_Init+0x128>)
 8002b3a:	f006 060f 	andlt.w	r6, r6, #15
 8002b3e:	f502 4261 	addge.w	r2, r2, #57600	; 0xe100
 8002b42:	bfb9      	ittee	lt
 8002b44:	b2db      	uxtblt	r3, r3
 8002b46:	5593      	strblt	r3, [r2, r6]
 8002b48:	b2db      	uxtbge	r3, r3
 8002b4a:	f882 3300 	strbge.w	r3, [r2, #768]	; 0x300
 8002b4e:	68e3      	ldr	r3, [r4, #12]
 8002b50:	7e61      	ldrb	r1, [r4, #25]
 8002b52:	68d8      	ldr	r0, [r3, #12]
 8002b54:	f7ff f804 	bl	8001b60 <XMC_VADC_GLOBAL_BackgroundSetReqSrcEventInterruptNode>
 8002b58:	6923      	ldr	r3, [r4, #16]
 8002b5a:	681a      	ldr	r2, [r3, #0]
 8002b5c:	b253      	sxtb	r3, r2
 8002b5e:	2b00      	cmp	r3, #0
 8002b60:	db08      	blt.n	8002b74 <ADC_MEASUREMENT_Init+0x104>
 8002b62:	2101      	movs	r1, #1
 8002b64:	f002 021f 	and.w	r2, r2, #31
 8002b68:	fa01 f202 	lsl.w	r2, r1, r2
 8002b6c:	095b      	lsrs	r3, r3, #5
 8002b6e:	490b      	ldr	r1, [pc, #44]	; (8002b9c <ADC_MEASUREMENT_Init+0x12c>)
 8002b70:	f841 2023 	str.w	r2, [r1, r3, lsl #2]
 8002b74:	6963      	ldr	r3, [r4, #20]
 8002b76:	b103      	cbz	r3, 8002b7a <ADC_MEASUREMENT_Init+0x10a>
 8002b78:	4798      	blx	r3
 8002b7a:	7ea3      	ldrb	r3, [r4, #26]
 8002b7c:	b13b      	cbz	r3, 8002b8e <ADC_MEASUREMENT_Init+0x11e>
 8002b7e:	68e3      	ldr	r3, [r4, #12]
 8002b80:	68da      	ldr	r2, [r3, #12]
 8002b82:	f8d2 3204 	ldr.w	r3, [r2, #516]	; 0x204
 8002b86:	f443 7300 	orr.w	r3, r3, #512	; 0x200
 8002b8a:	f8c2 3204 	str.w	r3, [r2, #516]	; 0x204
 8002b8e:	7625      	strb	r5, [r4, #24]
 8002b90:	7e20      	ldrb	r0, [r4, #24]
 8002b92:	bdf8      	pop	{r3, r4, r5, r6, r7, pc}
 8002b94:	e000ed00 	.word	0xe000ed00
 8002b98:	e000ed14 	.word	0xe000ed14
 8002b9c:	e000e100 	.word	0xe000e100

08002ba0 <ADC_MEASUREMENT_GetResult>:
 8002ba0:	6803      	ldr	r3, [r0, #0]
 8002ba2:	6882      	ldr	r2, [r0, #8]
 8002ba4:	789b      	ldrb	r3, [r3, #2]
 8002ba6:	f003 030f 	and.w	r3, r3, #15
 8002baa:	33c0      	adds	r3, #192	; 0xc0
 8002bac:	f852 0023 	ldr.w	r0, [r2, r3, lsl #2]
 8002bb0:	b280      	uxth	r0, r0
 8002bb2:	4770      	bx	lr

08002bb4 <DAVE_Init>:
 8002bb4:	b508      	push	{r3, lr}
 8002bb6:	4815      	ldr	r0, [pc, #84]	; (8002c0c <DAVE_Init+0x58>)
 8002bb8:	f7ff fe6c 	bl	8002894 <CLOCK_XMC4_Init>
 8002bbc:	bb20      	cbnz	r0, 8002c08 <DAVE_Init+0x54>
 8002bbe:	4814      	ldr	r0, [pc, #80]	; (8002c10 <DAVE_Init+0x5c>)
 8002bc0:	f7ff fe1e 	bl	8002800 <DIGITAL_IO_Init>
 8002bc4:	bb00      	cbnz	r0, 8002c08 <DAVE_Init+0x54>
 8002bc6:	4813      	ldr	r0, [pc, #76]	; (8002c14 <DAVE_Init+0x60>)
 8002bc8:	f7ff fb43 	bl	8002252 <TIMER_Init>
 8002bcc:	b9e0      	cbnz	r0, 8002c08 <DAVE_Init+0x54>
 8002bce:	4812      	ldr	r0, [pc, #72]	; (8002c18 <DAVE_Init+0x64>)
 8002bd0:	f7ff fba8 	bl	8002324 <INTERRUPT_Init>
 8002bd4:	b9c0      	cbnz	r0, 8002c08 <DAVE_Init+0x54>
 8002bd6:	4811      	ldr	r0, [pc, #68]	; (8002c1c <DAVE_Init+0x68>)
 8002bd8:	f7ff f8fc 	bl	8001dd4 <UART_Init>
 8002bdc:	b9a0      	cbnz	r0, 8002c08 <DAVE_Init+0x54>
 8002bde:	4810      	ldr	r0, [pc, #64]	; (8002c20 <DAVE_Init+0x6c>)
 8002be0:	f7ff fb42 	bl	8002268 <PIN_INTERRUPT_Init>
 8002be4:	b980      	cbnz	r0, 8002c08 <DAVE_Init+0x54>
 8002be6:	480f      	ldr	r0, [pc, #60]	; (8002c24 <DAVE_Init+0x70>)
 8002be8:	f7ff ff42 	bl	8002a70 <ADC_MEASUREMENT_Init>
 8002bec:	b960      	cbnz	r0, 8002c08 <DAVE_Init+0x54>
 8002bee:	480e      	ldr	r0, [pc, #56]	; (8002c28 <DAVE_Init+0x74>)
 8002bf0:	f7ff fbff 	bl	80023f2 <I2C_MASTER_Init>
 8002bf4:	b940      	cbnz	r0, 8002c08 <DAVE_Init+0x54>
 8002bf6:	480d      	ldr	r0, [pc, #52]	; (8002c2c <DAVE_Init+0x78>)
 8002bf8:	f7ff fe9e 	bl	8002938 <CAN_NODE_Init>
 8002bfc:	b920      	cbnz	r0, 8002c08 <DAVE_Init+0x54>
 8002bfe:	480c      	ldr	r0, [pc, #48]	; (8002c30 <DAVE_Init+0x7c>)
 8002c00:	e8bd 4008 	ldmia.w	sp!, {r3, lr}
 8002c04:	f7ff b8e6 	b.w	8001dd4 <UART_Init>
 8002c08:	bd08      	pop	{r3, pc}
 8002c0a:	bf00      	nop
 8002c0c:	1fffca9c 	.word	0x1fffca9c
 8002c10:	08003864 	.word	0x08003864
 8002c14:	1fffc828 	.word	0x1fffc828
 8002c18:	080037d4 	.word	0x080037d4
 8002c1c:	1fffc810 	.word	0x1fffc810
 8002c20:	080037b0 	.word	0x080037b0
 8002c24:	1fffc8f0 	.word	0x1fffc8f0
 8002c28:	1fffc858 	.word	0x1fffc858
 8002c2c:	080038d0 	.word	0x080038d0
 8002c30:	1fffc81c 	.word	0x1fffc81c

08002c34 <__errno>:
 8002c34:	4b01      	ldr	r3, [pc, #4]	; (8002c3c <__errno+0x8>)
 8002c36:	6818      	ldr	r0, [r3, #0]
 8002c38:	4770      	bx	lr
 8002c3a:	bf00      	nop
 8002c3c:	1fffc990 	.word	0x1fffc990

08002c40 <__libc_init_array>:
 8002c40:	b570      	push	{r4, r5, r6, lr}
 8002c42:	4b0e      	ldr	r3, [pc, #56]	; (8002c7c <__libc_init_array+0x3c>)
 8002c44:	4c0e      	ldr	r4, [pc, #56]	; (8002c80 <__libc_init_array+0x40>)
 8002c46:	1ae4      	subs	r4, r4, r3
 8002c48:	10a4      	asrs	r4, r4, #2
 8002c4a:	2500      	movs	r5, #0
 8002c4c:	461e      	mov	r6, r3
 8002c4e:	42a5      	cmp	r5, r4
 8002c50:	d004      	beq.n	8002c5c <__libc_init_array+0x1c>
 8002c52:	f856 3025 	ldr.w	r3, [r6, r5, lsl #2]
 8002c56:	4798      	blx	r3
 8002c58:	3501      	adds	r5, #1
 8002c5a:	e7f8      	b.n	8002c4e <__libc_init_array+0xe>
 8002c5c:	f7ff f8aa 	bl	8001db4 <_init>
 8002c60:	4c08      	ldr	r4, [pc, #32]	; (8002c84 <__libc_init_array+0x44>)
 8002c62:	4b09      	ldr	r3, [pc, #36]	; (8002c88 <__libc_init_array+0x48>)
 8002c64:	1ae4      	subs	r4, r4, r3
 8002c66:	10a4      	asrs	r4, r4, #2
 8002c68:	2500      	movs	r5, #0
 8002c6a:	461e      	mov	r6, r3
 8002c6c:	42a5      	cmp	r5, r4
 8002c6e:	d004      	beq.n	8002c7a <__libc_init_array+0x3a>
 8002c70:	f856 3025 	ldr.w	r3, [r6, r5, lsl #2]
 8002c74:	4798      	blx	r3
 8002c76:	3501      	adds	r5, #1
 8002c78:	e7f8      	b.n	8002c6c <__libc_init_array+0x2c>
 8002c7a:	bd70      	pop	{r4, r5, r6, pc}
 8002c7c:	1fffc994 	.word	0x1fffc994
 8002c80:	1fffc994 	.word	0x1fffc994
 8002c84:	1fffc994 	.word	0x1fffc994
 8002c88:	1fffc994 	.word	0x1fffc994

08002c8c <memcpy>:
 8002c8c:	b510      	push	{r4, lr}
 8002c8e:	1e43      	subs	r3, r0, #1
 8002c90:	440a      	add	r2, r1
 8002c92:	4291      	cmp	r1, r2
 8002c94:	d004      	beq.n	8002ca0 <memcpy+0x14>
 8002c96:	f811 4b01 	ldrb.w	r4, [r1], #1
 8002c9a:	f803 4f01 	strb.w	r4, [r3, #1]!
 8002c9e:	e7f8      	b.n	8002c92 <memcpy+0x6>
 8002ca0:	bd10      	pop	{r4, pc}
	...

08002ca4 <sniprintf>:
 8002ca4:	b40c      	push	{r2, r3}
 8002ca6:	b530      	push	{r4, r5, lr}
 8002ca8:	4b16      	ldr	r3, [pc, #88]	; (8002d04 <sniprintf+0x60>)
 8002caa:	1e0c      	subs	r4, r1, #0
 8002cac:	b09d      	sub	sp, #116	; 0x74
 8002cae:	681d      	ldr	r5, [r3, #0]
 8002cb0:	da04      	bge.n	8002cbc <sniprintf+0x18>
 8002cb2:	238b      	movs	r3, #139	; 0x8b
 8002cb4:	602b      	str	r3, [r5, #0]
 8002cb6:	f04f 30ff 	mov.w	r0, #4294967295
 8002cba:	e01e      	b.n	8002cfa <sniprintf+0x56>
 8002cbc:	f44f 7302 	mov.w	r3, #520	; 0x208
 8002cc0:	f8ad 3014 	strh.w	r3, [sp, #20]
 8002cc4:	bf14      	ite	ne
 8002cc6:	f104 33ff 	addne.w	r3, r4, #4294967295
 8002cca:	4623      	moveq	r3, r4
 8002ccc:	9304      	str	r3, [sp, #16]
 8002cce:	9307      	str	r3, [sp, #28]
 8002cd0:	f64f 73ff 	movw	r3, #65535	; 0xffff
 8002cd4:	9002      	str	r0, [sp, #8]
 8002cd6:	9006      	str	r0, [sp, #24]
 8002cd8:	f8ad 3016 	strh.w	r3, [sp, #22]
 8002cdc:	4628      	mov	r0, r5
 8002cde:	ab21      	add	r3, sp, #132	; 0x84
 8002ce0:	a902      	add	r1, sp, #8
 8002ce2:	9a20      	ldr	r2, [sp, #128]	; 0x80
 8002ce4:	9301      	str	r3, [sp, #4]
 8002ce6:	f000 f895 	bl	8002e14 <_svfiprintf_r>
 8002cea:	1c43      	adds	r3, r0, #1
 8002cec:	bfbc      	itt	lt
 8002cee:	238b      	movlt	r3, #139	; 0x8b
 8002cf0:	602b      	strlt	r3, [r5, #0]
 8002cf2:	b114      	cbz	r4, 8002cfa <sniprintf+0x56>
 8002cf4:	9b02      	ldr	r3, [sp, #8]
 8002cf6:	2200      	movs	r2, #0
 8002cf8:	701a      	strb	r2, [r3, #0]
 8002cfa:	b01d      	add	sp, #116	; 0x74
 8002cfc:	e8bd 4030 	ldmia.w	sp!, {r4, r5, lr}
 8002d00:	b002      	add	sp, #8
 8002d02:	4770      	bx	lr
 8002d04:	1fffc990 	.word	0x1fffc990

08002d08 <siprintf>:
 8002d08:	b40e      	push	{r1, r2, r3}
 8002d0a:	b500      	push	{lr}
 8002d0c:	b09c      	sub	sp, #112	; 0x70
 8002d0e:	f44f 7102 	mov.w	r1, #520	; 0x208
 8002d12:	f8ad 1014 	strh.w	r1, [sp, #20]
 8002d16:	f06f 4100 	mvn.w	r1, #2147483648	; 0x80000000
 8002d1a:	9104      	str	r1, [sp, #16]
 8002d1c:	9107      	str	r1, [sp, #28]
 8002d1e:	f64f 71ff 	movw	r1, #65535	; 0xffff
 8002d22:	ab1d      	add	r3, sp, #116	; 0x74
 8002d24:	f8ad 1016 	strh.w	r1, [sp, #22]
 8002d28:	4908      	ldr	r1, [pc, #32]	; (8002d4c <siprintf+0x44>)
 8002d2a:	f853 2b04 	ldr.w	r2, [r3], #4
 8002d2e:	9002      	str	r0, [sp, #8]
 8002d30:	9006      	str	r0, [sp, #24]
 8002d32:	6808      	ldr	r0, [r1, #0]
 8002d34:	9301      	str	r3, [sp, #4]
 8002d36:	a902      	add	r1, sp, #8
 8002d38:	f000 f86c 	bl	8002e14 <_svfiprintf_r>
 8002d3c:	9b02      	ldr	r3, [sp, #8]
 8002d3e:	2200      	movs	r2, #0
 8002d40:	701a      	strb	r2, [r3, #0]
 8002d42:	b01c      	add	sp, #112	; 0x70
 8002d44:	f85d eb04 	ldr.w	lr, [sp], #4
 8002d48:	b003      	add	sp, #12
 8002d4a:	4770      	bx	lr
 8002d4c:	1fffc990 	.word	0x1fffc990

08002d50 <strlen>:
 8002d50:	4603      	mov	r3, r0
 8002d52:	f813 2b01 	ldrb.w	r2, [r3], #1
 8002d56:	2a00      	cmp	r2, #0
 8002d58:	d1fb      	bne.n	8002d52 <strlen+0x2>
 8002d5a:	1a18      	subs	r0, r3, r0
 8002d5c:	3801      	subs	r0, #1
 8002d5e:	4770      	bx	lr

08002d60 <__ssputs_r>:
 8002d60:	e92d 47f0 	stmdb	sp!, {r4, r5, r6, r7, r8, r9, sl, lr}
 8002d64:	688e      	ldr	r6, [r1, #8]
 8002d66:	42b3      	cmp	r3, r6
 8002d68:	4682      	mov	sl, r0
 8002d6a:	460c      	mov	r4, r1
 8002d6c:	4690      	mov	r8, r2
 8002d6e:	4699      	mov	r9, r3
 8002d70:	d340      	bcc.n	8002df4 <__ssputs_r+0x94>
 8002d72:	898a      	ldrh	r2, [r1, #12]
 8002d74:	f412 6f90 	tst.w	r2, #1152	; 0x480
 8002d78:	d03a      	beq.n	8002df0 <__ssputs_r+0x90>
 8002d7a:	6825      	ldr	r5, [r4, #0]
 8002d7c:	6909      	ldr	r1, [r1, #16]
 8002d7e:	1a6f      	subs	r7, r5, r1
 8002d80:	6965      	ldr	r5, [r4, #20]
 8002d82:	2302      	movs	r3, #2
 8002d84:	eb05 0545 	add.w	r5, r5, r5, lsl #1
 8002d88:	fb95 f5f3 	sdiv	r5, r5, r3
 8002d8c:	1c7b      	adds	r3, r7, #1
 8002d8e:	444b      	add	r3, r9
 8002d90:	429d      	cmp	r5, r3
 8002d92:	bf38      	it	cc
 8002d94:	461d      	movcc	r5, r3
 8002d96:	0553      	lsls	r3, r2, #21
 8002d98:	d50f      	bpl.n	8002dba <__ssputs_r+0x5a>
 8002d9a:	4629      	mov	r1, r5
 8002d9c:	f000 fb2a 	bl	80033f4 <_malloc_r>
 8002da0:	4606      	mov	r6, r0
 8002da2:	b198      	cbz	r0, 8002dcc <__ssputs_r+0x6c>
 8002da4:	6921      	ldr	r1, [r4, #16]
 8002da6:	463a      	mov	r2, r7
 8002da8:	f7ff ff70 	bl	8002c8c <memcpy>
 8002dac:	89a3      	ldrh	r3, [r4, #12]
 8002dae:	f423 6390 	bic.w	r3, r3, #1152	; 0x480
 8002db2:	f043 0380 	orr.w	r3, r3, #128	; 0x80
 8002db6:	81a3      	strh	r3, [r4, #12]
 8002db8:	e013      	b.n	8002de2 <__ssputs_r+0x82>
 8002dba:	462a      	mov	r2, r5
 8002dbc:	f000 fb70 	bl	80034a0 <_realloc_r>
 8002dc0:	4606      	mov	r6, r0
 8002dc2:	b970      	cbnz	r0, 8002de2 <__ssputs_r+0x82>
 8002dc4:	4650      	mov	r0, sl
 8002dc6:	6921      	ldr	r1, [r4, #16]
 8002dc8:	f000 fad0 	bl	800336c <_free_r>
 8002dcc:	230c      	movs	r3, #12
 8002dce:	f8ca 3000 	str.w	r3, [sl]
 8002dd2:	89a3      	ldrh	r3, [r4, #12]
 8002dd4:	f043 0340 	orr.w	r3, r3, #64	; 0x40
 8002dd8:	81a3      	strh	r3, [r4, #12]
 8002dda:	f04f 30ff 	mov.w	r0, #4294967295
 8002dde:	e8bd 87f0 	ldmia.w	sp!, {r4, r5, r6, r7, r8, r9, sl, pc}
 8002de2:	6126      	str	r6, [r4, #16]
 8002de4:	6165      	str	r5, [r4, #20]
 8002de6:	443e      	add	r6, r7
 8002de8:	1bed      	subs	r5, r5, r7
 8002dea:	6026      	str	r6, [r4, #0]
 8002dec:	60a5      	str	r5, [r4, #8]
 8002dee:	464e      	mov	r6, r9
 8002df0:	45b1      	cmp	r9, r6
 8002df2:	d200      	bcs.n	8002df6 <__ssputs_r+0x96>
 8002df4:	464e      	mov	r6, r9
 8002df6:	4632      	mov	r2, r6
 8002df8:	6820      	ldr	r0, [r4, #0]
 8002dfa:	4641      	mov	r1, r8
 8002dfc:	f000 fa9b 	bl	8003336 <memmove>
 8002e00:	68a3      	ldr	r3, [r4, #8]
 8002e02:	1b9b      	subs	r3, r3, r6
 8002e04:	60a3      	str	r3, [r4, #8]
 8002e06:	6823      	ldr	r3, [r4, #0]
 8002e08:	441e      	add	r6, r3
 8002e0a:	6026      	str	r6, [r4, #0]
 8002e0c:	2000      	movs	r0, #0
 8002e0e:	e8bd 87f0 	ldmia.w	sp!, {r4, r5, r6, r7, r8, r9, sl, pc}
	...

08002e14 <_svfiprintf_r>:
 8002e14:	e92d 43f0 	stmdb	sp!, {r4, r5, r6, r7, r8, r9, lr}
 8002e18:	b09d      	sub	sp, #116	; 0x74
 8002e1a:	4606      	mov	r6, r0
 8002e1c:	9303      	str	r3, [sp, #12]
 8002e1e:	898b      	ldrh	r3, [r1, #12]
 8002e20:	061c      	lsls	r4, r3, #24
 8002e22:	460d      	mov	r5, r1
 8002e24:	4690      	mov	r8, r2
 8002e26:	d50c      	bpl.n	8002e42 <_svfiprintf_r+0x2e>
 8002e28:	690b      	ldr	r3, [r1, #16]
 8002e2a:	b953      	cbnz	r3, 8002e42 <_svfiprintf_r+0x2e>
 8002e2c:	2140      	movs	r1, #64	; 0x40
 8002e2e:	f000 fae1 	bl	80033f4 <_malloc_r>
 8002e32:	6028      	str	r0, [r5, #0]
 8002e34:	6128      	str	r0, [r5, #16]
 8002e36:	b910      	cbnz	r0, 8002e3e <_svfiprintf_r+0x2a>
 8002e38:	230c      	movs	r3, #12
 8002e3a:	6033      	str	r3, [r6, #0]
 8002e3c:	e0cc      	b.n	8002fd8 <_svfiprintf_r+0x1c4>
 8002e3e:	2340      	movs	r3, #64	; 0x40
 8002e40:	616b      	str	r3, [r5, #20]
 8002e42:	2300      	movs	r3, #0
 8002e44:	9309      	str	r3, [sp, #36]	; 0x24
 8002e46:	2320      	movs	r3, #32
 8002e48:	f88d 3029 	strb.w	r3, [sp, #41]	; 0x29
 8002e4c:	2330      	movs	r3, #48	; 0x30
 8002e4e:	f88d 302a 	strb.w	r3, [sp, #42]	; 0x2a
 8002e52:	4643      	mov	r3, r8
 8002e54:	461c      	mov	r4, r3
 8002e56:	f813 2b01 	ldrb.w	r2, [r3], #1
 8002e5a:	b91a      	cbnz	r2, 8002e64 <_svfiprintf_r+0x50>
 8002e5c:	ebb4 0908 	subs.w	r9, r4, r8
 8002e60:	d00f      	beq.n	8002e82 <_svfiprintf_r+0x6e>
 8002e62:	e002      	b.n	8002e6a <_svfiprintf_r+0x56>
 8002e64:	2a25      	cmp	r2, #37	; 0x25
 8002e66:	d1f5      	bne.n	8002e54 <_svfiprintf_r+0x40>
 8002e68:	e7f8      	b.n	8002e5c <_svfiprintf_r+0x48>
 8002e6a:	4630      	mov	r0, r6
 8002e6c:	4629      	mov	r1, r5
 8002e6e:	4642      	mov	r2, r8
 8002e70:	464b      	mov	r3, r9
 8002e72:	f7ff ff75 	bl	8002d60 <__ssputs_r>
 8002e76:	3001      	adds	r0, #1
 8002e78:	f000 80a9 	beq.w	8002fce <_svfiprintf_r+0x1ba>
 8002e7c:	9b09      	ldr	r3, [sp, #36]	; 0x24
 8002e7e:	444b      	add	r3, r9
 8002e80:	9309      	str	r3, [sp, #36]	; 0x24
 8002e82:	7823      	ldrb	r3, [r4, #0]
 8002e84:	2b00      	cmp	r3, #0
 8002e86:	f000 80a2 	beq.w	8002fce <_svfiprintf_r+0x1ba>
 8002e8a:	2300      	movs	r3, #0
 8002e8c:	f04f 32ff 	mov.w	r2, #4294967295
 8002e90:	9304      	str	r3, [sp, #16]
 8002e92:	9307      	str	r3, [sp, #28]
 8002e94:	9205      	str	r2, [sp, #20]
 8002e96:	9306      	str	r3, [sp, #24]
 8002e98:	f88d 3053 	strb.w	r3, [sp, #83]	; 0x53
 8002e9c:	931a      	str	r3, [sp, #104]	; 0x68
 8002e9e:	f104 0801 	add.w	r8, r4, #1
 8002ea2:	4644      	mov	r4, r8
 8002ea4:	f8df 9148 	ldr.w	r9, [pc, #328]	; 8002ff0 <_svfiprintf_r+0x1dc>
 8002ea8:	7821      	ldrb	r1, [r4, #0]
 8002eaa:	4648      	mov	r0, r9
 8002eac:	2205      	movs	r2, #5
 8002eae:	f000 fa33 	bl	8003318 <memchr>
 8002eb2:	f108 0801 	add.w	r8, r8, #1
 8002eb6:	9b04      	ldr	r3, [sp, #16]
 8002eb8:	b130      	cbz	r0, 8002ec8 <_svfiprintf_r+0xb4>
 8002eba:	ebc9 0000 	rsb	r0, r9, r0
 8002ebe:	2201      	movs	r2, #1
 8002ec0:	4082      	lsls	r2, r0
 8002ec2:	4313      	orrs	r3, r2
 8002ec4:	9304      	str	r3, [sp, #16]
 8002ec6:	e7ec      	b.n	8002ea2 <_svfiprintf_r+0x8e>
 8002ec8:	06d8      	lsls	r0, r3, #27
 8002eca:	bf44      	itt	mi
 8002ecc:	2220      	movmi	r2, #32
 8002ece:	f88d 2053 	strbmi.w	r2, [sp, #83]	; 0x53
 8002ed2:	0719      	lsls	r1, r3, #28
 8002ed4:	bf44      	itt	mi
 8002ed6:	222b      	movmi	r2, #43	; 0x2b
 8002ed8:	f88d 2053 	strbmi.w	r2, [sp, #83]	; 0x53
 8002edc:	7822      	ldrb	r2, [r4, #0]
 8002ede:	2a2a      	cmp	r2, #42	; 0x2a
 8002ee0:	d002      	beq.n	8002ee8 <_svfiprintf_r+0xd4>
 8002ee2:	9907      	ldr	r1, [sp, #28]
 8002ee4:	4623      	mov	r3, r4
 8002ee6:	e00e      	b.n	8002f06 <_svfiprintf_r+0xf2>
 8002ee8:	9a03      	ldr	r2, [sp, #12]
 8002eea:	1d11      	adds	r1, r2, #4
 8002eec:	6812      	ldr	r2, [r2, #0]
 8002eee:	9103      	str	r1, [sp, #12]
 8002ef0:	2a00      	cmp	r2, #0
 8002ef2:	bfbb      	ittet	lt
 8002ef4:	4252      	neglt	r2, r2
 8002ef6:	f043 0302 	orrlt.w	r3, r3, #2
 8002efa:	9207      	strge	r2, [sp, #28]
 8002efc:	9207      	strlt	r2, [sp, #28]
 8002efe:	bfb8      	it	lt
 8002f00:	9304      	strlt	r3, [sp, #16]
 8002f02:	3401      	adds	r4, #1
 8002f04:	e00a      	b.n	8002f1c <_svfiprintf_r+0x108>
 8002f06:	461c      	mov	r4, r3
 8002f08:	3301      	adds	r3, #1
 8002f0a:	7822      	ldrb	r2, [r4, #0]
 8002f0c:	3a30      	subs	r2, #48	; 0x30
 8002f0e:	2a09      	cmp	r2, #9
 8002f10:	d803      	bhi.n	8002f1a <_svfiprintf_r+0x106>
 8002f12:	200a      	movs	r0, #10
 8002f14:	fb00 2101 	mla	r1, r0, r1, r2
 8002f18:	e7f5      	b.n	8002f06 <_svfiprintf_r+0xf2>
 8002f1a:	9107      	str	r1, [sp, #28]
 8002f1c:	7823      	ldrb	r3, [r4, #0]
 8002f1e:	2b2e      	cmp	r3, #46	; 0x2e
 8002f20:	d11a      	bne.n	8002f58 <_svfiprintf_r+0x144>
 8002f22:	7863      	ldrb	r3, [r4, #1]
 8002f24:	2b2a      	cmp	r3, #42	; 0x2a
 8002f26:	d10a      	bne.n	8002f3e <_svfiprintf_r+0x12a>
 8002f28:	9b03      	ldr	r3, [sp, #12]
 8002f2a:	1d1a      	adds	r2, r3, #4
 8002f2c:	681b      	ldr	r3, [r3, #0]
 8002f2e:	9203      	str	r2, [sp, #12]
 8002f30:	2b00      	cmp	r3, #0
 8002f32:	bfb8      	it	lt
 8002f34:	f04f 33ff 	movlt.w	r3, #4294967295
 8002f38:	3402      	adds	r4, #2
 8002f3a:	9305      	str	r3, [sp, #20]
 8002f3c:	e00c      	b.n	8002f58 <_svfiprintf_r+0x144>
 8002f3e:	1c61      	adds	r1, r4, #1
 8002f40:	2200      	movs	r2, #0
 8002f42:	460c      	mov	r4, r1
 8002f44:	3101      	adds	r1, #1
 8002f46:	7823      	ldrb	r3, [r4, #0]
 8002f48:	3b30      	subs	r3, #48	; 0x30
 8002f4a:	2b09      	cmp	r3, #9
 8002f4c:	d803      	bhi.n	8002f56 <_svfiprintf_r+0x142>
 8002f4e:	200a      	movs	r0, #10
 8002f50:	fb00 3202 	mla	r2, r0, r2, r3
 8002f54:	e7f5      	b.n	8002f42 <_svfiprintf_r+0x12e>
 8002f56:	9205      	str	r2, [sp, #20]
 8002f58:	f8df 8098 	ldr.w	r8, [pc, #152]	; 8002ff4 <_svfiprintf_r+0x1e0>
 8002f5c:	7821      	ldrb	r1, [r4, #0]
 8002f5e:	4640      	mov	r0, r8
 8002f60:	2203      	movs	r2, #3
 8002f62:	f000 f9d9 	bl	8003318 <memchr>
 8002f66:	b138      	cbz	r0, 8002f78 <_svfiprintf_r+0x164>
 8002f68:	9a04      	ldr	r2, [sp, #16]
 8002f6a:	ebc8 0000 	rsb	r0, r8, r0
 8002f6e:	2340      	movs	r3, #64	; 0x40
 8002f70:	4083      	lsls	r3, r0
 8002f72:	4313      	orrs	r3, r2
 8002f74:	9304      	str	r3, [sp, #16]
 8002f76:	3401      	adds	r4, #1
 8002f78:	7821      	ldrb	r1, [r4, #0]
 8002f7a:	481a      	ldr	r0, [pc, #104]	; (8002fe4 <_svfiprintf_r+0x1d0>)
 8002f7c:	f88d 1028 	strb.w	r1, [sp, #40]	; 0x28
 8002f80:	2206      	movs	r2, #6
 8002f82:	f104 0801 	add.w	r8, r4, #1
 8002f86:	f000 f9c7 	bl	8003318 <memchr>
 8002f8a:	b188      	cbz	r0, 8002fb0 <_svfiprintf_r+0x19c>
 8002f8c:	4b16      	ldr	r3, [pc, #88]	; (8002fe8 <_svfiprintf_r+0x1d4>)
 8002f8e:	b933      	cbnz	r3, 8002f9e <_svfiprintf_r+0x18a>
 8002f90:	9b03      	ldr	r3, [sp, #12]
 8002f92:	3307      	adds	r3, #7
 8002f94:	f023 0307 	bic.w	r3, r3, #7
 8002f98:	3308      	adds	r3, #8
 8002f9a:	9303      	str	r3, [sp, #12]
 8002f9c:	e013      	b.n	8002fc6 <_svfiprintf_r+0x1b2>
 8002f9e:	ab03      	add	r3, sp, #12
 8002fa0:	9300      	str	r3, [sp, #0]
 8002fa2:	4630      	mov	r0, r6
 8002fa4:	a904      	add	r1, sp, #16
 8002fa6:	462a      	mov	r2, r5
 8002fa8:	4b10      	ldr	r3, [pc, #64]	; (8002fec <_svfiprintf_r+0x1d8>)
 8002faa:	f3af 8000 	nop.w
 8002fae:	e007      	b.n	8002fc0 <_svfiprintf_r+0x1ac>
 8002fb0:	ab03      	add	r3, sp, #12
 8002fb2:	9300      	str	r3, [sp, #0]
 8002fb4:	4630      	mov	r0, r6
 8002fb6:	a904      	add	r1, sp, #16
 8002fb8:	462a      	mov	r2, r5
 8002fba:	4b0c      	ldr	r3, [pc, #48]	; (8002fec <_svfiprintf_r+0x1d8>)
 8002fbc:	f000 f892 	bl	80030e4 <_printf_i>
 8002fc0:	1c42      	adds	r2, r0, #1
 8002fc2:	4607      	mov	r7, r0
 8002fc4:	d003      	beq.n	8002fce <_svfiprintf_r+0x1ba>
 8002fc6:	9b09      	ldr	r3, [sp, #36]	; 0x24
 8002fc8:	443b      	add	r3, r7
 8002fca:	9309      	str	r3, [sp, #36]	; 0x24
 8002fcc:	e741      	b.n	8002e52 <_svfiprintf_r+0x3e>
 8002fce:	89ab      	ldrh	r3, [r5, #12]
 8002fd0:	065b      	lsls	r3, r3, #25
 8002fd2:	d401      	bmi.n	8002fd8 <_svfiprintf_r+0x1c4>
 8002fd4:	9809      	ldr	r0, [sp, #36]	; 0x24
 8002fd6:	e001      	b.n	8002fdc <_svfiprintf_r+0x1c8>
 8002fd8:	f04f 30ff 	mov.w	r0, #4294967295
 8002fdc:	b01d      	add	sp, #116	; 0x74
 8002fde:	e8bd 83f0 	ldmia.w	sp!, {r4, r5, r6, r7, r8, r9, pc}
 8002fe2:	bf00      	nop
 8002fe4:	0800399e 	.word	0x0800399e
 8002fe8:	00000000 	.word	0x00000000
 8002fec:	08002d61 	.word	0x08002d61
 8002ff0:	08003994 	.word	0x08003994
 8002ff4:	0800399a 	.word	0x0800399a

08002ff8 <_printf_common>:
 8002ff8:	e92d 43f8 	stmdb	sp!, {r3, r4, r5, r6, r7, r8, r9, lr}
 8002ffc:	4691      	mov	r9, r2
 8002ffe:	461f      	mov	r7, r3
 8003000:	688a      	ldr	r2, [r1, #8]
 8003002:	690b      	ldr	r3, [r1, #16]
 8003004:	f8dd 8020 	ldr.w	r8, [sp, #32]
 8003008:	4293      	cmp	r3, r2
 800300a:	bfb8      	it	lt
 800300c:	4613      	movlt	r3, r2
 800300e:	f8c9 3000 	str.w	r3, [r9]
 8003012:	f891 2043 	ldrb.w	r2, [r1, #67]	; 0x43
 8003016:	4606      	mov	r6, r0
 8003018:	460c      	mov	r4, r1
 800301a:	b112      	cbz	r2, 8003022 <_printf_common+0x2a>
 800301c:	3301      	adds	r3, #1
 800301e:	f8c9 3000 	str.w	r3, [r9]
 8003022:	6823      	ldr	r3, [r4, #0]
 8003024:	0699      	lsls	r1, r3, #26
 8003026:	bf42      	ittt	mi
 8003028:	f8d9 3000 	ldrmi.w	r3, [r9]
 800302c:	3302      	addmi	r3, #2
 800302e:	f8c9 3000 	strmi.w	r3, [r9]
 8003032:	6825      	ldr	r5, [r4, #0]
 8003034:	f015 0506 	ands.w	r5, r5, #6
 8003038:	d01c      	beq.n	8003074 <_printf_common+0x7c>
 800303a:	f894 3043 	ldrb.w	r3, [r4, #67]	; 0x43
 800303e:	6822      	ldr	r2, [r4, #0]
 8003040:	3300      	adds	r3, #0
 8003042:	bf18      	it	ne
 8003044:	2301      	movne	r3, #1
 8003046:	0692      	lsls	r2, r2, #26
 8003048:	d51f      	bpl.n	800308a <_printf_common+0x92>
 800304a:	18e1      	adds	r1, r4, r3
 800304c:	1c5a      	adds	r2, r3, #1
 800304e:	2030      	movs	r0, #48	; 0x30
 8003050:	f881 0043 	strb.w	r0, [r1, #67]	; 0x43
 8003054:	4422      	add	r2, r4
 8003056:	f894 1045 	ldrb.w	r1, [r4, #69]	; 0x45
 800305a:	f882 1043 	strb.w	r1, [r2, #67]	; 0x43
 800305e:	3302      	adds	r3, #2
 8003060:	e013      	b.n	800308a <_printf_common+0x92>
 8003062:	4630      	mov	r0, r6
 8003064:	4639      	mov	r1, r7
 8003066:	f104 0219 	add.w	r2, r4, #25
 800306a:	2301      	movs	r3, #1
 800306c:	47c0      	blx	r8
 800306e:	3001      	adds	r0, #1
 8003070:	d007      	beq.n	8003082 <_printf_common+0x8a>
 8003072:	3501      	adds	r5, #1
 8003074:	68e3      	ldr	r3, [r4, #12]
 8003076:	f8d9 2000 	ldr.w	r2, [r9]
 800307a:	1a9b      	subs	r3, r3, r2
 800307c:	429d      	cmp	r5, r3
 800307e:	dbf0      	blt.n	8003062 <_printf_common+0x6a>
 8003080:	e7db      	b.n	800303a <_printf_common+0x42>
 8003082:	f04f 30ff 	mov.w	r0, #4294967295
 8003086:	e8bd 83f8 	ldmia.w	sp!, {r3, r4, r5, r6, r7, r8, r9, pc}
 800308a:	4630      	mov	r0, r6
 800308c:	4639      	mov	r1, r7
 800308e:	f104 0243 	add.w	r2, r4, #67	; 0x43
 8003092:	47c0      	blx	r8
 8003094:	3001      	adds	r0, #1
 8003096:	d0f4      	beq.n	8003082 <_printf_common+0x8a>
 8003098:	6822      	ldr	r2, [r4, #0]
 800309a:	f8d9 5000 	ldr.w	r5, [r9]
 800309e:	68e3      	ldr	r3, [r4, #12]
 80030a0:	f002 0206 	and.w	r2, r2, #6
 80030a4:	2a04      	cmp	r2, #4
 80030a6:	bf08      	it	eq
 80030a8:	1b5d      	subeq	r5, r3, r5
 80030aa:	6922      	ldr	r2, [r4, #16]
 80030ac:	68a3      	ldr	r3, [r4, #8]
 80030ae:	bf0c      	ite	eq
 80030b0:	ea25 75e5 	biceq.w	r5, r5, r5, asr #31
 80030b4:	2500      	movne	r5, #0
 80030b6:	4293      	cmp	r3, r2
 80030b8:	bfc4      	itt	gt
 80030ba:	1a9b      	subgt	r3, r3, r2
 80030bc:	18ed      	addgt	r5, r5, r3
 80030be:	f04f 0900 	mov.w	r9, #0
 80030c2:	45a9      	cmp	r9, r5
 80030c4:	da0a      	bge.n	80030dc <_printf_common+0xe4>
 80030c6:	4630      	mov	r0, r6
 80030c8:	4639      	mov	r1, r7
 80030ca:	f104 021a 	add.w	r2, r4, #26
 80030ce:	2301      	movs	r3, #1
 80030d0:	47c0      	blx	r8
 80030d2:	3001      	adds	r0, #1
 80030d4:	d0d5      	beq.n	8003082 <_printf_common+0x8a>
 80030d6:	f109 0901 	add.w	r9, r9, #1
 80030da:	e7f2      	b.n	80030c2 <_printf_common+0xca>
 80030dc:	2000      	movs	r0, #0
 80030de:	e8bd 83f8 	ldmia.w	sp!, {r3, r4, r5, r6, r7, r8, r9, pc}
	...

080030e4 <_printf_i>:
 80030e4:	e92d 41ff 	stmdb	sp!, {r0, r1, r2, r3, r4, r5, r6, r7, r8, lr}
 80030e8:	460c      	mov	r4, r1
 80030ea:	4617      	mov	r7, r2
 80030ec:	7e22      	ldrb	r2, [r4, #24]
 80030ee:	2a6e      	cmp	r2, #110	; 0x6e
 80030f0:	4698      	mov	r8, r3
 80030f2:	4606      	mov	r6, r0
 80030f4:	9b0a      	ldr	r3, [sp, #40]	; 0x28
 80030f6:	f101 0143 	add.w	r1, r1, #67	; 0x43
 80030fa:	f000 80a9 	beq.w	8003250 <_printf_i+0x16c>
 80030fe:	d812      	bhi.n	8003126 <_printf_i+0x42>
 8003100:	2a63      	cmp	r2, #99	; 0x63
 8003102:	d023      	beq.n	800314c <_printf_i+0x68>
 8003104:	d80a      	bhi.n	800311c <_printf_i+0x38>
 8003106:	2a00      	cmp	r2, #0
 8003108:	f000 80b6 	beq.w	8003278 <_printf_i+0x194>
 800310c:	2a58      	cmp	r2, #88	; 0x58
 800310e:	f040 80c5 	bne.w	800329c <_printf_i+0x1b8>
 8003112:	f884 2045 	strb.w	r2, [r4, #69]	; 0x45
 8003116:	f8df e1f8 	ldr.w	lr, [pc, #504]	; 8003310 <_printf_i+0x22c>
 800311a:	e051      	b.n	80031c0 <_printf_i+0xdc>
 800311c:	2a64      	cmp	r2, #100	; 0x64
 800311e:	d01e      	beq.n	800315e <_printf_i+0x7a>
 8003120:	2a69      	cmp	r2, #105	; 0x69
 8003122:	d01c      	beq.n	800315e <_printf_i+0x7a>
 8003124:	e0ba      	b.n	800329c <_printf_i+0x1b8>
 8003126:	2a73      	cmp	r2, #115	; 0x73
 8003128:	f000 80aa 	beq.w	8003280 <_printf_i+0x19c>
 800312c:	d809      	bhi.n	8003142 <_printf_i+0x5e>
 800312e:	2a6f      	cmp	r2, #111	; 0x6f
 8003130:	d02b      	beq.n	800318a <_printf_i+0xa6>
 8003132:	2a70      	cmp	r2, #112	; 0x70
 8003134:	f040 80b2 	bne.w	800329c <_printf_i+0x1b8>
 8003138:	6822      	ldr	r2, [r4, #0]
 800313a:	f042 0220 	orr.w	r2, r2, #32
 800313e:	6022      	str	r2, [r4, #0]
 8003140:	e039      	b.n	80031b6 <_printf_i+0xd2>
 8003142:	2a75      	cmp	r2, #117	; 0x75
 8003144:	d021      	beq.n	800318a <_printf_i+0xa6>
 8003146:	2a78      	cmp	r2, #120	; 0x78
 8003148:	d035      	beq.n	80031b6 <_printf_i+0xd2>
 800314a:	e0a7      	b.n	800329c <_printf_i+0x1b8>
 800314c:	681a      	ldr	r2, [r3, #0]
 800314e:	1d11      	adds	r1, r2, #4
 8003150:	6019      	str	r1, [r3, #0]
 8003152:	6813      	ldr	r3, [r2, #0]
 8003154:	f884 3042 	strb.w	r3, [r4, #66]	; 0x42
 8003158:	f104 0542 	add.w	r5, r4, #66	; 0x42
 800315c:	e0a2      	b.n	80032a4 <_printf_i+0x1c0>
 800315e:	6820      	ldr	r0, [r4, #0]
 8003160:	681a      	ldr	r2, [r3, #0]
 8003162:	f010 0f80 	tst.w	r0, #128	; 0x80
 8003166:	d003      	beq.n	8003170 <_printf_i+0x8c>
 8003168:	1d10      	adds	r0, r2, #4
 800316a:	6018      	str	r0, [r3, #0]
 800316c:	6813      	ldr	r3, [r2, #0]
 800316e:	e005      	b.n	800317c <_printf_i+0x98>
 8003170:	0645      	lsls	r5, r0, #25
 8003172:	d5f9      	bpl.n	8003168 <_printf_i+0x84>
 8003174:	1d10      	adds	r0, r2, #4
 8003176:	6018      	str	r0, [r3, #0]
 8003178:	f9b2 3000 	ldrsh.w	r3, [r2]
 800317c:	2b00      	cmp	r3, #0
 800317e:	da3b      	bge.n	80031f8 <_printf_i+0x114>
 8003180:	222d      	movs	r2, #45	; 0x2d
 8003182:	425b      	negs	r3, r3
 8003184:	f884 2043 	strb.w	r2, [r4, #67]	; 0x43
 8003188:	e036      	b.n	80031f8 <_printf_i+0x114>
 800318a:	6820      	ldr	r0, [r4, #0]
 800318c:	681a      	ldr	r2, [r3, #0]
 800318e:	f010 0f80 	tst.w	r0, #128	; 0x80
 8003192:	d003      	beq.n	800319c <_printf_i+0xb8>
 8003194:	1d10      	adds	r0, r2, #4
 8003196:	6018      	str	r0, [r3, #0]
 8003198:	6813      	ldr	r3, [r2, #0]
 800319a:	e004      	b.n	80031a6 <_printf_i+0xc2>
 800319c:	0640      	lsls	r0, r0, #25
 800319e:	d5f9      	bpl.n	8003194 <_printf_i+0xb0>
 80031a0:	1d10      	adds	r0, r2, #4
 80031a2:	6018      	str	r0, [r3, #0]
 80031a4:	8813      	ldrh	r3, [r2, #0]
 80031a6:	7e22      	ldrb	r2, [r4, #24]
 80031a8:	f8df e164 	ldr.w	lr, [pc, #356]	; 8003310 <_printf_i+0x22c>
 80031ac:	2a6f      	cmp	r2, #111	; 0x6f
 80031ae:	bf0c      	ite	eq
 80031b0:	2208      	moveq	r2, #8
 80031b2:	220a      	movne	r2, #10
 80031b4:	e01c      	b.n	80031f0 <_printf_i+0x10c>
 80031b6:	2278      	movs	r2, #120	; 0x78
 80031b8:	f8df e158 	ldr.w	lr, [pc, #344]	; 8003314 <_printf_i+0x230>
 80031bc:	f884 2045 	strb.w	r2, [r4, #69]	; 0x45
 80031c0:	6822      	ldr	r2, [r4, #0]
 80031c2:	6818      	ldr	r0, [r3, #0]
 80031c4:	f012 0f80 	tst.w	r2, #128	; 0x80
 80031c8:	f100 0504 	add.w	r5, r0, #4
 80031cc:	601d      	str	r5, [r3, #0]
 80031ce:	d001      	beq.n	80031d4 <_printf_i+0xf0>
 80031d0:	6803      	ldr	r3, [r0, #0]
 80031d2:	e002      	b.n	80031da <_printf_i+0xf6>
 80031d4:	0655      	lsls	r5, r2, #25
 80031d6:	d5fb      	bpl.n	80031d0 <_printf_i+0xec>
 80031d8:	8803      	ldrh	r3, [r0, #0]
 80031da:	07d0      	lsls	r0, r2, #31
 80031dc:	bf44      	itt	mi
 80031de:	f042 0220 	orrmi.w	r2, r2, #32
 80031e2:	6022      	strmi	r2, [r4, #0]
 80031e4:	b91b      	cbnz	r3, 80031ee <_printf_i+0x10a>
 80031e6:	6822      	ldr	r2, [r4, #0]
 80031e8:	f022 0220 	bic.w	r2, r2, #32
 80031ec:	6022      	str	r2, [r4, #0]
 80031ee:	2210      	movs	r2, #16
 80031f0:	2000      	movs	r0, #0
 80031f2:	f884 0043 	strb.w	r0, [r4, #67]	; 0x43
 80031f6:	e002      	b.n	80031fe <_printf_i+0x11a>
 80031f8:	f8df e114 	ldr.w	lr, [pc, #276]	; 8003310 <_printf_i+0x22c>
 80031fc:	220a      	movs	r2, #10
 80031fe:	6865      	ldr	r5, [r4, #4]
 8003200:	60a5      	str	r5, [r4, #8]
 8003202:	2d00      	cmp	r5, #0
 8003204:	bfa2      	ittt	ge
 8003206:	6820      	ldrge	r0, [r4, #0]
 8003208:	f020 0004 	bicge.w	r0, r0, #4
 800320c:	6020      	strge	r0, [r4, #0]
 800320e:	b903      	cbnz	r3, 8003212 <_printf_i+0x12e>
 8003210:	b165      	cbz	r5, 800322c <_printf_i+0x148>
 8003212:	460d      	mov	r5, r1
 8003214:	fbb3 f0f2 	udiv	r0, r3, r2
 8003218:	fb02 3310 	mls	r3, r2, r0, r3
 800321c:	f81e 3003 	ldrb.w	r3, [lr, r3]
 8003220:	f805 3d01 	strb.w	r3, [r5, #-1]!
 8003224:	4603      	mov	r3, r0
 8003226:	2800      	cmp	r0, #0
 8003228:	d1f4      	bne.n	8003214 <_printf_i+0x130>
 800322a:	e000      	b.n	800322e <_printf_i+0x14a>
 800322c:	460d      	mov	r5, r1
 800322e:	2a08      	cmp	r2, #8
 8003230:	d10b      	bne.n	800324a <_printf_i+0x166>
 8003232:	6823      	ldr	r3, [r4, #0]
 8003234:	07da      	lsls	r2, r3, #31
 8003236:	d508      	bpl.n	800324a <_printf_i+0x166>
 8003238:	6923      	ldr	r3, [r4, #16]
 800323a:	6862      	ldr	r2, [r4, #4]
 800323c:	429a      	cmp	r2, r3
 800323e:	bfde      	ittt	le
 8003240:	2330      	movle	r3, #48	; 0x30
 8003242:	f805 3c01 	strble.w	r3, [r5, #-1]
 8003246:	f105 35ff 	addle.w	r5, r5, #4294967295
 800324a:	1b49      	subs	r1, r1, r5
 800324c:	6121      	str	r1, [r4, #16]
 800324e:	e02e      	b.n	80032ae <_printf_i+0x1ca>
 8003250:	6825      	ldr	r5, [r4, #0]
 8003252:	681a      	ldr	r2, [r3, #0]
 8003254:	6960      	ldr	r0, [r4, #20]
 8003256:	f015 0f80 	tst.w	r5, #128	; 0x80
 800325a:	d003      	beq.n	8003264 <_printf_i+0x180>
 800325c:	1d15      	adds	r5, r2, #4
 800325e:	601d      	str	r5, [r3, #0]
 8003260:	6813      	ldr	r3, [r2, #0]
 8003262:	e008      	b.n	8003276 <_printf_i+0x192>
 8003264:	f015 0f40 	tst.w	r5, #64	; 0x40
 8003268:	f102 0504 	add.w	r5, r2, #4
 800326c:	601d      	str	r5, [r3, #0]
 800326e:	6813      	ldr	r3, [r2, #0]
 8003270:	d001      	beq.n	8003276 <_printf_i+0x192>
 8003272:	8018      	strh	r0, [r3, #0]
 8003274:	e000      	b.n	8003278 <_printf_i+0x194>
 8003276:	6018      	str	r0, [r3, #0]
 8003278:	2300      	movs	r3, #0
 800327a:	6123      	str	r3, [r4, #16]
 800327c:	460d      	mov	r5, r1
 800327e:	e016      	b.n	80032ae <_printf_i+0x1ca>
 8003280:	681a      	ldr	r2, [r3, #0]
 8003282:	1d11      	adds	r1, r2, #4
 8003284:	6019      	str	r1, [r3, #0]
 8003286:	6815      	ldr	r5, [r2, #0]
 8003288:	6862      	ldr	r2, [r4, #4]
 800328a:	4628      	mov	r0, r5
 800328c:	2100      	movs	r1, #0
 800328e:	f000 f843 	bl	8003318 <memchr>
 8003292:	b108      	cbz	r0, 8003298 <_printf_i+0x1b4>
 8003294:	1b40      	subs	r0, r0, r5
 8003296:	6060      	str	r0, [r4, #4]
 8003298:	6863      	ldr	r3, [r4, #4]
 800329a:	e004      	b.n	80032a6 <_printf_i+0x1c2>
 800329c:	f104 0542 	add.w	r5, r4, #66	; 0x42
 80032a0:	f884 2042 	strb.w	r2, [r4, #66]	; 0x42
 80032a4:	2301      	movs	r3, #1
 80032a6:	6123      	str	r3, [r4, #16]
 80032a8:	2300      	movs	r3, #0
 80032aa:	f884 3043 	strb.w	r3, [r4, #67]	; 0x43
 80032ae:	f8cd 8000 	str.w	r8, [sp]
 80032b2:	4630      	mov	r0, r6
 80032b4:	4621      	mov	r1, r4
 80032b6:	aa03      	add	r2, sp, #12
 80032b8:	463b      	mov	r3, r7
 80032ba:	f7ff fe9d 	bl	8002ff8 <_printf_common>
 80032be:	3001      	adds	r0, #1
 80032c0:	d102      	bne.n	80032c8 <_printf_i+0x1e4>
 80032c2:	f04f 30ff 	mov.w	r0, #4294967295
 80032c6:	e01f      	b.n	8003308 <_printf_i+0x224>
 80032c8:	4630      	mov	r0, r6
 80032ca:	4639      	mov	r1, r7
 80032cc:	462a      	mov	r2, r5
 80032ce:	6923      	ldr	r3, [r4, #16]
 80032d0:	47c0      	blx	r8
 80032d2:	3001      	adds	r0, #1
 80032d4:	d0f5      	beq.n	80032c2 <_printf_i+0x1de>
 80032d6:	6823      	ldr	r3, [r4, #0]
 80032d8:	079b      	lsls	r3, r3, #30
 80032da:	d405      	bmi.n	80032e8 <_printf_i+0x204>
 80032dc:	68e0      	ldr	r0, [r4, #12]
 80032de:	9b03      	ldr	r3, [sp, #12]
 80032e0:	4298      	cmp	r0, r3
 80032e2:	bfb8      	it	lt
 80032e4:	4618      	movlt	r0, r3
 80032e6:	e00f      	b.n	8003308 <_printf_i+0x224>
 80032e8:	2500      	movs	r5, #0
 80032ea:	68e3      	ldr	r3, [r4, #12]
 80032ec:	9a03      	ldr	r2, [sp, #12]
 80032ee:	1a9b      	subs	r3, r3, r2
 80032f0:	429d      	cmp	r5, r3
 80032f2:	daf3      	bge.n	80032dc <_printf_i+0x1f8>
 80032f4:	4630      	mov	r0, r6
 80032f6:	4639      	mov	r1, r7
 80032f8:	f104 0219 	add.w	r2, r4, #25
 80032fc:	2301      	movs	r3, #1
 80032fe:	47c0      	blx	r8
 8003300:	3001      	adds	r0, #1
 8003302:	d0de      	beq.n	80032c2 <_printf_i+0x1de>
 8003304:	3501      	adds	r5, #1
 8003306:	e7f0      	b.n	80032ea <_printf_i+0x206>
 8003308:	b004      	add	sp, #16
 800330a:	e8bd 81f0 	ldmia.w	sp!, {r4, r5, r6, r7, r8, pc}
 800330e:	bf00      	nop
 8003310:	080039a5 	.word	0x080039a5
 8003314:	080039b6 	.word	0x080039b6

08003318 <memchr>:
 8003318:	b510      	push	{r4, lr}
 800331a:	b2c9      	uxtb	r1, r1
 800331c:	4402      	add	r2, r0
 800331e:	4290      	cmp	r0, r2
 8003320:	4603      	mov	r3, r0
 8003322:	d006      	beq.n	8003332 <memchr+0x1a>
 8003324:	781c      	ldrb	r4, [r3, #0]
 8003326:	428c      	cmp	r4, r1
 8003328:	f100 0001 	add.w	r0, r0, #1
 800332c:	d1f7      	bne.n	800331e <memchr+0x6>
 800332e:	4618      	mov	r0, r3
 8003330:	bd10      	pop	{r4, pc}
 8003332:	2000      	movs	r0, #0
 8003334:	bd10      	pop	{r4, pc}

08003336 <memmove>:
 8003336:	4281      	cmp	r1, r0
 8003338:	b510      	push	{r4, lr}
 800333a:	eb01 0302 	add.w	r3, r1, r2
 800333e:	d301      	bcc.n	8003344 <memmove+0xe>
 8003340:	1e42      	subs	r2, r0, #1
 8003342:	e00b      	b.n	800335c <memmove+0x26>
 8003344:	4298      	cmp	r0, r3
 8003346:	d2fb      	bcs.n	8003340 <memmove+0xa>
 8003348:	1881      	adds	r1, r0, r2
 800334a:	1ad2      	subs	r2, r2, r3
 800334c:	42d3      	cmn	r3, r2
 800334e:	d004      	beq.n	800335a <memmove+0x24>
 8003350:	f813 4d01 	ldrb.w	r4, [r3, #-1]!
 8003354:	f801 4d01 	strb.w	r4, [r1, #-1]!
 8003358:	e7f8      	b.n	800334c <memmove+0x16>
 800335a:	bd10      	pop	{r4, pc}
 800335c:	4299      	cmp	r1, r3
 800335e:	d004      	beq.n	800336a <memmove+0x34>
 8003360:	f811 4b01 	ldrb.w	r4, [r1], #1
 8003364:	f802 4f01 	strb.w	r4, [r2, #1]!
 8003368:	e7f8      	b.n	800335c <memmove+0x26>
 800336a:	bd10      	pop	{r4, pc}

0800336c <_free_r>:
 800336c:	b530      	push	{r4, r5, lr}
 800336e:	2900      	cmp	r1, #0
 8003370:	d03d      	beq.n	80033ee <_free_r+0x82>
 8003372:	f851 2c04 	ldr.w	r2, [r1, #-4]
 8003376:	1f0b      	subs	r3, r1, #4
 8003378:	491d      	ldr	r1, [pc, #116]	; (80033f0 <_free_r+0x84>)
 800337a:	2a00      	cmp	r2, #0
 800337c:	bfb8      	it	lt
 800337e:	189b      	addlt	r3, r3, r2
 8003380:	680a      	ldr	r2, [r1, #0]
 8003382:	460c      	mov	r4, r1
 8003384:	b912      	cbnz	r2, 800338c <_free_r+0x20>
 8003386:	605a      	str	r2, [r3, #4]
 8003388:	600b      	str	r3, [r1, #0]
 800338a:	bd30      	pop	{r4, r5, pc}
 800338c:	4293      	cmp	r3, r2
 800338e:	d20d      	bcs.n	80033ac <_free_r+0x40>
 8003390:	6819      	ldr	r1, [r3, #0]
 8003392:	1858      	adds	r0, r3, r1
 8003394:	4290      	cmp	r0, r2
 8003396:	bf01      	itttt	eq
 8003398:	585a      	ldreq	r2, [r3, r1]
 800339a:	1852      	addeq	r2, r2, r1
 800339c:	601a      	streq	r2, [r3, #0]
 800339e:	6842      	ldreq	r2, [r0, #4]
 80033a0:	605a      	str	r2, [r3, #4]
 80033a2:	6023      	str	r3, [r4, #0]
 80033a4:	bd30      	pop	{r4, r5, pc}
 80033a6:	4299      	cmp	r1, r3
 80033a8:	d803      	bhi.n	80033b2 <_free_r+0x46>
 80033aa:	460a      	mov	r2, r1
 80033ac:	6851      	ldr	r1, [r2, #4]
 80033ae:	2900      	cmp	r1, #0
 80033b0:	d1f9      	bne.n	80033a6 <_free_r+0x3a>
 80033b2:	6814      	ldr	r4, [r2, #0]
 80033b4:	1915      	adds	r5, r2, r4
 80033b6:	429d      	cmp	r5, r3
 80033b8:	d10a      	bne.n	80033d0 <_free_r+0x64>
 80033ba:	681b      	ldr	r3, [r3, #0]
 80033bc:	4423      	add	r3, r4
 80033be:	18d0      	adds	r0, r2, r3
 80033c0:	4288      	cmp	r0, r1
 80033c2:	6013      	str	r3, [r2, #0]
 80033c4:	d113      	bne.n	80033ee <_free_r+0x82>
 80033c6:	6808      	ldr	r0, [r1, #0]
 80033c8:	4403      	add	r3, r0
 80033ca:	6013      	str	r3, [r2, #0]
 80033cc:	684b      	ldr	r3, [r1, #4]
 80033ce:	e00d      	b.n	80033ec <_free_r+0x80>
 80033d0:	d902      	bls.n	80033d8 <_free_r+0x6c>
 80033d2:	230c      	movs	r3, #12
 80033d4:	6003      	str	r3, [r0, #0]
 80033d6:	bd30      	pop	{r4, r5, pc}
 80033d8:	681c      	ldr	r4, [r3, #0]
 80033da:	1918      	adds	r0, r3, r4
 80033dc:	4288      	cmp	r0, r1
 80033de:	bf04      	itt	eq
 80033e0:	6808      	ldreq	r0, [r1, #0]
 80033e2:	6849      	ldreq	r1, [r1, #4]
 80033e4:	6059      	str	r1, [r3, #4]
 80033e6:	bf04      	itt	eq
 80033e8:	1900      	addeq	r0, r0, r4
 80033ea:	6018      	streq	r0, [r3, #0]
 80033ec:	6053      	str	r3, [r2, #4]
 80033ee:	bd30      	pop	{r4, r5, pc}
 80033f0:	1fffcaa8 	.word	0x1fffcaa8

080033f4 <_malloc_r>:
 80033f4:	b570      	push	{r4, r5, r6, lr}
 80033f6:	1ccc      	adds	r4, r1, #3
 80033f8:	f024 0403 	bic.w	r4, r4, #3
 80033fc:	3408      	adds	r4, #8
 80033fe:	2c0c      	cmp	r4, #12
 8003400:	bf38      	it	cc
 8003402:	240c      	movcc	r4, #12
 8003404:	2c00      	cmp	r4, #0
 8003406:	4606      	mov	r6, r0
 8003408:	da03      	bge.n	8003412 <_malloc_r+0x1e>
 800340a:	230c      	movs	r3, #12
 800340c:	6033      	str	r3, [r6, #0]
 800340e:	2000      	movs	r0, #0
 8003410:	bd70      	pop	{r4, r5, r6, pc}
 8003412:	428c      	cmp	r4, r1
 8003414:	d3f9      	bcc.n	800340a <_malloc_r+0x16>
 8003416:	4a20      	ldr	r2, [pc, #128]	; (8003498 <_malloc_r+0xa4>)
 8003418:	6813      	ldr	r3, [r2, #0]
 800341a:	4610      	mov	r0, r2
 800341c:	4619      	mov	r1, r3
 800341e:	b1a1      	cbz	r1, 800344a <_malloc_r+0x56>
 8003420:	680a      	ldr	r2, [r1, #0]
 8003422:	1b12      	subs	r2, r2, r4
 8003424:	d40e      	bmi.n	8003444 <_malloc_r+0x50>
 8003426:	2a0b      	cmp	r2, #11
 8003428:	d903      	bls.n	8003432 <_malloc_r+0x3e>
 800342a:	600a      	str	r2, [r1, #0]
 800342c:	188b      	adds	r3, r1, r2
 800342e:	508c      	str	r4, [r1, r2]
 8003430:	e01f      	b.n	8003472 <_malloc_r+0x7e>
 8003432:	428b      	cmp	r3, r1
 8003434:	bf0d      	iteet	eq
 8003436:	685a      	ldreq	r2, [r3, #4]
 8003438:	684a      	ldrne	r2, [r1, #4]
 800343a:	605a      	strne	r2, [r3, #4]
 800343c:	6002      	streq	r2, [r0, #0]
 800343e:	bf18      	it	ne
 8003440:	460b      	movne	r3, r1
 8003442:	e016      	b.n	8003472 <_malloc_r+0x7e>
 8003444:	460b      	mov	r3, r1
 8003446:	6849      	ldr	r1, [r1, #4]
 8003448:	e7e9      	b.n	800341e <_malloc_r+0x2a>
 800344a:	4d14      	ldr	r5, [pc, #80]	; (800349c <_malloc_r+0xa8>)
 800344c:	682b      	ldr	r3, [r5, #0]
 800344e:	b91b      	cbnz	r3, 8003458 <_malloc_r+0x64>
 8003450:	4630      	mov	r0, r6
 8003452:	f000 f84b 	bl	80034ec <_sbrk_r>
 8003456:	6028      	str	r0, [r5, #0]
 8003458:	4630      	mov	r0, r6
 800345a:	4621      	mov	r1, r4
 800345c:	f000 f846 	bl	80034ec <_sbrk_r>
 8003460:	1c42      	adds	r2, r0, #1
 8003462:	4603      	mov	r3, r0
 8003464:	d0d1      	beq.n	800340a <_malloc_r+0x16>
 8003466:	1cc5      	adds	r5, r0, #3
 8003468:	f025 0503 	bic.w	r5, r5, #3
 800346c:	4285      	cmp	r5, r0
 800346e:	d10a      	bne.n	8003486 <_malloc_r+0x92>
 8003470:	601c      	str	r4, [r3, #0]
 8003472:	f103 000b 	add.w	r0, r3, #11
 8003476:	1d1a      	adds	r2, r3, #4
 8003478:	f020 0007 	bic.w	r0, r0, #7
 800347c:	1a82      	subs	r2, r0, r2
 800347e:	d00a      	beq.n	8003496 <_malloc_r+0xa2>
 8003480:	4251      	negs	r1, r2
 8003482:	5099      	str	r1, [r3, r2]
 8003484:	bd70      	pop	{r4, r5, r6, pc}
 8003486:	4630      	mov	r0, r6
 8003488:	1ae9      	subs	r1, r5, r3
 800348a:	f000 f82f 	bl	80034ec <_sbrk_r>
 800348e:	3001      	adds	r0, #1
 8003490:	d0bb      	beq.n	800340a <_malloc_r+0x16>
 8003492:	462b      	mov	r3, r5
 8003494:	e7ec      	b.n	8003470 <_malloc_r+0x7c>
 8003496:	bd70      	pop	{r4, r5, r6, pc}
 8003498:	1fffcaa8 	.word	0x1fffcaa8
 800349c:	1fffcaa4 	.word	0x1fffcaa4

080034a0 <_realloc_r>:
 80034a0:	b5f8      	push	{r3, r4, r5, r6, r7, lr}
 80034a2:	4607      	mov	r7, r0
 80034a4:	4615      	mov	r5, r2
 80034a6:	460e      	mov	r6, r1
 80034a8:	b921      	cbnz	r1, 80034b4 <_realloc_r+0x14>
 80034aa:	4611      	mov	r1, r2
 80034ac:	e8bd 40f8 	ldmia.w	sp!, {r3, r4, r5, r6, r7, lr}
 80034b0:	f7ff bfa0 	b.w	80033f4 <_malloc_r>
 80034b4:	b91a      	cbnz	r2, 80034be <_realloc_r+0x1e>
 80034b6:	f7ff ff59 	bl	800336c <_free_r>
 80034ba:	4628      	mov	r0, r5
 80034bc:	bdf8      	pop	{r3, r4, r5, r6, r7, pc}
 80034be:	f000 f825 	bl	800350c <_malloc_usable_size_r>
 80034c2:	42a8      	cmp	r0, r5
 80034c4:	d20e      	bcs.n	80034e4 <_realloc_r+0x44>
 80034c6:	4638      	mov	r0, r7
 80034c8:	4629      	mov	r1, r5
 80034ca:	f7ff ff93 	bl	80033f4 <_malloc_r>
 80034ce:	4604      	mov	r4, r0
 80034d0:	b150      	cbz	r0, 80034e8 <_realloc_r+0x48>
 80034d2:	4631      	mov	r1, r6
 80034d4:	462a      	mov	r2, r5
 80034d6:	f7ff fbd9 	bl	8002c8c <memcpy>
 80034da:	4638      	mov	r0, r7
 80034dc:	4631      	mov	r1, r6
 80034de:	f7ff ff45 	bl	800336c <_free_r>
 80034e2:	e001      	b.n	80034e8 <_realloc_r+0x48>
 80034e4:	4630      	mov	r0, r6
 80034e6:	bdf8      	pop	{r3, r4, r5, r6, r7, pc}
 80034e8:	4620      	mov	r0, r4
 80034ea:	bdf8      	pop	{r3, r4, r5, r6, r7, pc}

080034ec <_sbrk_r>:
 80034ec:	b538      	push	{r3, r4, r5, lr}
 80034ee:	4c06      	ldr	r4, [pc, #24]	; (8003508 <_sbrk_r+0x1c>)
 80034f0:	2300      	movs	r3, #0
 80034f2:	4605      	mov	r5, r0
 80034f4:	4608      	mov	r0, r1
 80034f6:	6023      	str	r3, [r4, #0]
 80034f8:	f7fe fc3c 	bl	8001d74 <_sbrk>
 80034fc:	1c43      	adds	r3, r0, #1
 80034fe:	d102      	bne.n	8003506 <_sbrk_r+0x1a>
 8003500:	6823      	ldr	r3, [r4, #0]
 8003502:	b103      	cbz	r3, 8003506 <_sbrk_r+0x1a>
 8003504:	602b      	str	r3, [r5, #0]
 8003506:	bd38      	pop	{r3, r4, r5, pc}
 8003508:	1fffcaac 	.word	0x1fffcaac

0800350c <_malloc_usable_size_r>:
 800350c:	f851 0c04 	ldr.w	r0, [r1, #-4]
 8003510:	2800      	cmp	r0, #0
 8003512:	bfbe      	ittt	lt
 8003514:	1809      	addlt	r1, r1, r0
 8003516:	f851 3c04 	ldrlt.w	r3, [r1, #-4]
 800351a:	18c0      	addlt	r0, r0, r3
 800351c:	3804      	subs	r0, #4
 800351e:	4770      	bx	lr
 8003520:	ac0008e1 	.word	0xac0008e1
 8003524:	0033      	.short	0x0033
 8003526:	6c42      	.short	0x6c42
 8003528:	6f746575 	.word	0x6f746575
 800352c:	2068746f 	.word	0x2068746f
 8003530:	0a0d4b4f 	.word	0x0a0d4b4f
 8003534:	616c4f00 	.word	0x616c4f00
 8003538:	45534920 	.word	0x45534920
 800353c:	61500050 	.word	0x61500050
 8003540:	616e6967 	.word	0x616e6967
 8003544:	756c4220 	.word	0x756c4220
 8003548:	6f6f7465 	.word	0x6f6f7465
 800354c:	0a0d6874 	.word	0x0a0d6874
	...

08003552 <can_valid_ids>:
 8003552:	04b104b0 04b304b2 04b504b4 04b704b6     ................
 8003562:	04b904b8 04bb04ba 04bd04bc 04bf04be     ................
 8003572:	04c104c0 04c404c3 706d6554 2e64253a     ........Temp:%d.
 8003582:	64323025 75480043 253a206d 30252e64     %02dC.Hum :%d.%0
 8003592:	25256432 4e414300 7534253a 3a585200     2d%%.CAN:%4u.RX:
 80035a2:	004b4f20 204e4143 57005852 69746961      OK.CAN RX.Waiti
 80035b2:	2e2e676e 7247002e 206f7075 0a0d3830     ng....Grupo 08..
 80035c2:	74737547 206f7661 3231202d 30343134     Gustavo - 124140
 80035d2:	4a0a0d32 206f616f 3231202d 33323134     2..Joao - 124123
 80035e2:	000a0d37 6e696c42 203d206b 20756c25     7...Blink = %lu 
 80035f2:	0a0d736d 44454c00 62203d20 6b6e696c     ms...LED = blink
 8003602:	0d676e69 454c000a 203d2044 0a0d4e4f     ing...LED = ON..
 8003612:	43444100 25203d20 000a0d64 706d6554     .ADC = %d...Temp
 8003622:	25203d20 30252e64 43206432 45000a0d      = %d.%02d C...E
 8003632:	206f7272 31544841 000a0d30 204e4143     rro AHT10...CAN 
 8003642:	25204449 202f2075 30257830 0a0d5833     ID %u / 0x%03X..
 8003652:	706d6554 25203d20 30252e64 43206432     Temp = %d.%02d C
 8003662:	75480a0d 203d206d 252e6425 20643230     ..Hum = %d.%02d 
 8003672:	0a0d2525 766f4e00 4143206f 5854204e     %%...Novo CAN TX
 8003682:	20444920 7525203d 30202f20 33302578      ID = %u / 0x%03
 8003692:	000a0d58 69676150 5420616e 65706d65     X...Pagina Tempe
 80036a2:	75746172 0a0d6172 67615000 20616e69     ratura...Pagina 
 80036b2:	0d4e4143 6f43000a 646e616d 6e69206f     CAN...Comando in
 80036c2:	696c6176 0a0d6f64 02000000                       valido...

080036cb <CSWTCH.37>:
 80036cb:	02020000 00000000 0c0c0a08 03000300              .............

080036d8 <CSWTCH.38>:
 80036d8:	00030003 000c000c 00000000 00000000     ................
 80036e8:	0c000300 30003000                       .....0.0

080036f0 <UART_1_rx_pin_config>:
 80036f0:	00000000 00000001 00000002              ............

080036fc <UART_0_rx_pin_config>:
 80036fc:	00000000 00000001 00000002              ............

08003708 <UART_1_config>:
 8003708:	08003738 08002011 00000000 00000000     87... ..........
	...
 800372c:	08003750 04000000 00000104              P7..........

08003738 <UART_1_channel_config>:
 8003738:	00002580 01080800 00000010              .%..........

08003744 <UART_0_tx_pin>:
 8003744:	48028100 00000005 0800375c              ...H....\7..

08003750 <UART_1_tx_pin>:
 8003750:	48028200 0000000e 08003798              ...H.....7..

0800375c <UART_0_tx_pin_config>:
 800375c:	00000090 00000001 00000002              ............

08003768 <UART_0_config>:
 8003768:	080037a4 080020e1 00000000 00000000     .7... ..........
	...
 800378c:	08003744 04000000 00000304              D7..........

08003798 <UART_1_tx_pin_config>:
 8003798:	00000090 00000001 00000002              ............

080037a4 <UART_0_channel_config>:
 80037a4:	0001c200 01080800 00000010              ............

080037b0 <PIN_INTERRUPT_0>:
 80037b0:	40044000 48028100 00000000 00000000     .@.@...H........
	...
 80037c8:	00000009 01003f05 00010f00              .....?......

080037d4 <INTERRUPT_0>:
 80037d4:	01003f31                                1?..

080037d8 <I2C_MASTER_0_sda_pin_config>:
 80037d8:	000000d0 00000001 00000000              ............

080037e4 <I2C_MASTER_0_scl_pin_config>:
 80037e4:	000000d0 00000001 00000000              ............

080037f0 <I2C_MASTER_0_config>:
 80037f0:	0800381c 080026c9 080026a5 08002681     .8...&...&...&..
	...
 8003814:	04040202 0000ffff                       ........

0800381c <I2C_MASTER_0_channel_config>:
 800381c:	000186a0 00000000                       ........

08003824 <group_init_handle0>:
	...

08003838 <group_init_handle1>:
	...

0800384c <global_config>:
 800384c:	00000000 00000002 00000000 00000000     ................
	...

08003864 <DIGITAL_IO_0>:
 8003864:	48028000 00000080 00010000 00000000     ...H............
 8003874:	00000001 01040350 00010000 00000000     ....P...........
 8003884:	00010000 01010101                       ........

0800388c <CAN_NODE_0_gpio_out>:
 800388c:	48028200 00000000                       ...H....

08003894 <CAN_NODE_0_gpio_in_config>:
	...

080038a0 <CAN_NODE_0_LMO_01_Config>:
 80038a0:	1fffc8b0 00000023 00000000              ....#.......

080038ac <CAN_NODE_0_BitTimeConfig>:
 80038ac:	04c4b400 0007a120 00011f40              .... ...@...

080038b8 <CAN_NODE_0_LMO_02_Config>:
 80038b8:	1fffc8d0 01000022 00000000              ....".......

080038c4 <CAN_NODE_0_sr>:
 80038c4:	00000000                                ....

080038c8 <CAN_NODE_0_gpio_in>:
 80038c8:	48028e00 00000003                       ...H....

080038d0 <CAN_NODE_0>:
 80038d0:	1fffc874 48014200 080038ac 080038a0     t....B.H.8...8..
 80038e0:	080038b8 00000000 00000000 00000000     .8..............
	...
 800395c:	080038c4 0800388c 08003978 080038c8     .8...8..x9...8..
 800396c:	08003894 00020001 00000000              .8..........

08003978 <CAN_NODE_0_gpio_out_config>:
 8003978:	00000088 00000001 00000002              ............

08003984 <backgnd_config>:
 8003984:	00000005 00000000 00000010              ............

08003990 <global_iclass_config>:
 8003990:	00000000 2b302d23 6c680020 6665004c     ....#-0+ .hlL.ef
 80039a0:	47464567 32313000 36353433 41393837     gEFG.0123456789A
 80039b0:	45444342 31300046 35343332 39383736     BCDEF.0123456789
 80039c0:	64636261 00006665                       abcdef..
