   1              	 .syntax unified
   2              	 .cpu cortex-m4
   3              	 .eabi_attribute 27,3
   4              	 .fpu fpv4-sp-d16
   5              	 .eabi_attribute 20,1
   6              	 .eabi_attribute 21,1
   7              	 .eabi_attribute 23,3
   8              	 .eabi_attribute 24,1
   9              	 .eabi_attribute 25,1
  10              	 .eabi_attribute 26,1
  11              	 .eabi_attribute 30,6
  12              	 .eabi_attribute 34,1
  13              	 .eabi_attribute 18,4
  14              	 .thumb
  15              	 .file "adc.c"
  16              	 .text
  17              	.Ltext0:
  18              	 .cfi_sections .debug_frame
  19              	 .global adc
  20              	 .section .bss.adc,"aw",%nobits
  21              	 .align 2
  24              	adc:
  25 0000 0000     	 .space 2
  26 0002 0000     	 .section .text.ADC_Update,"ax",%progbits
  27              	 .align 2
  28              	 .global ADC_Update
  29              	 .thumb
  30              	 .thumb_func
  32              	ADC_Update:
  33              	.LFB536:
  34              	 .file 1 "../sources/adc.c"
   1:../sources/adc.c **** #include "adc.h"
   2:../sources/adc.c **** 
   3:../sources/adc.c **** ADC_t adc = {0};
   4:../sources/adc.c **** 
   5:../sources/adc.c **** void ADC_Update(void)
   6:../sources/adc.c **** {
  35              	 .loc 1 6 0
  36              	 .cfi_startproc
  37              	 
  38              	 
  39 0000 80B5     	 push {r7,lr}
  40              	.LCFI0:
  41              	 .cfi_def_cfa_offset 8
  42              	 .cfi_offset 7,-8
  43              	 .cfi_offset 14,-4
  44 0002 00AF     	 add r7,sp,#0
  45              	.LCFI1:
  46              	 .cfi_def_cfa_register 7
   7:../sources/adc.c ****     adc.value = ADC_MEASUREMENT_GetResult(&ADC_MEASUREMENT_Channel_A_handle);
  47              	 .loc 1 7 0
  48 0004 0348     	 ldr r0,.L2
  49 0006 FFF7FEFF 	 bl ADC_MEASUREMENT_GetResult
  50 000a 0346     	 mov r3,r0
  51 000c 1A46     	 mov r2,r3
  52 000e 024B     	 ldr r3,.L2+4
  53 0010 1A80     	 strh r2,[r3]
   8:../sources/adc.c **** }
  54              	 .loc 1 8 0
  55 0012 80BD     	 pop {r7,pc}
  56              	.L3:
  57              	 .align 2
  58              	.L2:
  59 0014 00000000 	 .word ADC_MEASUREMENT_Channel_A_handle
  60 0018 00000000 	 .word adc
  61              	 .cfi_endproc
  62              	.LFE536:
  64              	 .section .text.ADC_GetValue,"ax",%progbits
  65              	 .align 2
  66              	 .global ADC_GetValue
  67              	 .thumb
  68              	 .thumb_func
  70              	ADC_GetValue:
  71              	.LFB537:
   9:../sources/adc.c **** 
  10:../sources/adc.c **** uint16_t ADC_GetValue(void)
  11:../sources/adc.c **** {
  72              	 .loc 1 11 0
  73              	 .cfi_startproc
  74              	 
  75              	 
  76              	 
  77 0000 80B4     	 push {r7}
  78              	.LCFI2:
  79              	 .cfi_def_cfa_offset 4
  80              	 .cfi_offset 7,-4
  81 0002 00AF     	 add r7,sp,#0
  82              	.LCFI3:
  83              	 .cfi_def_cfa_register 7
  12:../sources/adc.c ****     return adc.value;
  84              	 .loc 1 12 0
  85 0004 034B     	 ldr r3,.L6
  86 0006 1B88     	 ldrh r3,[r3]
  13:../sources/adc.c **** }
  87              	 .loc 1 13 0
  88 0008 1846     	 mov r0,r3
  89 000a BD46     	 mov sp,r7
  90              	.LCFI4:
  91              	 .cfi_def_cfa_register 13
  92              	 
  93 000c 5DF8047B 	 ldr r7,[sp],#4
  94              	.LCFI5:
  95              	 .cfi_restore 7
  96              	 .cfi_def_cfa_offset 0
  97 0010 7047     	 bx lr
  98              	.L7:
  99 0012 00BF     	 .align 2
 100              	.L6:
 101 0014 00000000 	 .word adc
 102              	 .cfi_endproc
 103              	.LFE537:
 105              	 .text
 106              	.Letext0:
 107              	 .file 2 "c:\\infineon\\tools\\dave ide\\4.5.0.202105191637\\eclipse\\arm-gcc-49\\arm-none-eabi\\include\\machine\\_default_types.h"
 108              	 .file 3 "c:\\infineon\\tools\\dave ide\\4.5.0.202105191637\\eclipse\\arm-gcc-49\\arm-none-eabi\\include\\stdint.h"
 109              	 .file 4 "C:/Infineon/Tools/DAVE IDE/4.5.0.202105191637/eclipse/workspace/SISEM_2026_2DA_08_A/Libraries/CMSIS/Infineon/XMC4200_series/Include/XMC4200.h"
 110              	 .file 5 "C:/Infineon/Tools/DAVE IDE/4.5.0.202105191637/eclipse/workspace/SISEM_2026_2DA_08_A/Libraries/XMCLib/inc/xmc_usic.h"
 111              	 .file 6 "C:/Infineon/Tools/DAVE IDE/4.5.0.202105191637/eclipse/workspace/SISEM_2026_2DA_08_A/Libraries/XMCLib/inc/xmc_vadc.h"
 112              	 .file 7 "C:/Infineon/Tools/DAVE IDE/4.5.0.202105191637/eclipse/workspace/SISEM_2026_2DA_08_A/Dave/Generated/ADC_MEASUREMENT/adc_measurement.h"
 113              	 .file 8 "C:/Infineon/Tools/DAVE IDE/4.5.0.202105191637/eclipse/workspace/SISEM_2026_2DA_08_A/headers/adc.h"
 114              	 .file 9 "C:/Infineon/Tools/DAVE IDE/4.5.0.202105191637/eclipse/workspace/SISEM_2026_2DA_08_A/Libraries/CMSIS/Include/cmsis_gcc.h"
 115              	 .file 10 "C:/Infineon/Tools/DAVE IDE/4.5.0.202105191637/eclipse/workspace/SISEM_2026_2DA_08_A/Libraries/CMSIS/Include/core_cm4.h"
 116              	 .file 11 "C:/Infineon/Tools/DAVE IDE/4.5.0.202105191637/eclipse/workspace/SISEM_2026_2DA_08_A/Libraries/CMSIS/Infineon/XMC4200_series/Include/system_XMC4200.h"
 117              	 .file 12 "C:/Infineon/Tools/DAVE IDE/4.5.0.202105191637/eclipse/workspace/SISEM_2026_2DA_08_A/Dave/Generated/ADC_MEASUREMENT/adc_measurement_extern.h"