   1              	 .syntax unified
   2              	 .cpu cortex-m4
   3              	 .eabi_attribute 27,3
   4              	 .fpu fpv4-sp-d16
   5              	 .eabi_attribute 20,1
   6              	 .eabi_attribute 21,1
   7              	 .eabi_attribute 23,3
   8              	 .eabi_attribute 24,1
   9              	 .eabi_attribute 25,1
  10              	 .eabi_attribute 26,1
  11              	 .eabi_attribute 30,6
  12              	 .eabi_attribute 34,1
  13              	 .eabi_attribute 18,4
  14              	 .thumb
  15              	 .file "uart.c"
  16              	 .text
  17              	.Ltext0:
  18              	 .cfi_sections .debug_frame
  19              	 .global uart_data
  20              	 .section .bss.uart_data,"aw",%nobits
  21              	 .align 2
  24              	uart_data:
  25 0000 00000000 	 .space 129
  25      00000000 
  25      00000000 
  25      00000000 
  25      00000000 
  26 0081 000000   	 .section .text.APP_UART_SendString,"ax",%progbits
  27              	 .align 2
  28              	 .global APP_UART_SendString
  29              	 .thumb
  30              	 .thumb_func
  32              	APP_UART_SendString:
  33              	.LFB536:
  34              	 .file 1 "../sources/uart.c"
   1:../sources/uart.c **** #include "uart.h"
   2:../sources/uart.c **** #include "adc.h"
   3:../sources/uart.c **** #include "led.h"
   4:../sources/uart.c **** #include "aht10.h"
   5:../sources/uart.c **** #include "can_app.h"
   6:../sources/uart.c **** #include "lcd.h"
   7:../sources/uart.c **** 
   8:../sources/uart.c **** #include <stdio.h>
   9:../sources/uart.c **** #include <string.h>
  10:../sources/uart.c **** #include <stdlib.h>
  11:../sources/uart.c **** 
  12:../sources/uart.c **** UART_DATA_t uart_data = {0};
  13:../sources/uart.c **** 
  14:../sources/uart.c **** void APP_UART_SendString(char *msg)
  15:../sources/uart.c **** {
  35              	 .loc 1 15 0
  36              	 .cfi_startproc
  37              	 
  38              	 
  39 0000 80B5     	 push {r7,lr}
  40              	.LCFI0:
  41              	 .cfi_def_cfa_offset 8
  42              	 .cfi_offset 7,-8
  43              	 .cfi_offset 14,-4
  44 0002 82B0     	 sub sp,sp,#8
  45              	.LCFI1:
  46              	 .cfi_def_cfa_offset 16
  47 0004 00AF     	 add r7,sp,#0
  48              	.LCFI2:
  49              	 .cfi_def_cfa_register 7
  50 0006 7860     	 str r0,[r7,#4]
  16:../sources/uart.c ****     UART_Transmit(&UART_0, (uint8_t*)msg, strlen(msg));
  51              	 .loc 1 16 0
  52 0008 7868     	 ldr r0,[r7,#4]
  53 000a FFF7FEFF 	 bl strlen
  54 000e 0346     	 mov r3,r0
  55 0010 0348     	 ldr r0,.L2
  56 0012 7968     	 ldr r1,[r7,#4]
  57 0014 1A46     	 mov r2,r3
  58 0016 FFF7FEFF 	 bl UART_Transmit
  17:../sources/uart.c **** }
  59              	 .loc 1 17 0
  60 001a 0837     	 adds r7,r7,#8
  61              	.LCFI3:
  62              	 .cfi_def_cfa_offset 8
  63 001c BD46     	 mov sp,r7
  64              	.LCFI4:
  65              	 .cfi_def_cfa_register 13
  66              	 
  67 001e 80BD     	 pop {r7,pc}
  68              	.L3:
  69              	 .align 2
  70              	.L2:
  71 0020 00000000 	 .word UART_0
  72              	 .cfi_endproc
  73              	.LFE536:
  75              	 .section .rodata
  76              	 .align 2
  77              	.LC0:
  78 0000 47727570 	 .ascii "Grupo 08\015\012Gustavo - 1241402\015\012Joao - 124"
  78      6F203038 
  78      0D0A4775 
  78      73746176 
  78      6F202D20 
  79 0027 31323337 	 .ascii "1237\015\012\000"
  79      0D0A00
  80              	 .section .text.APP_UART_Init,"ax",%progbits
  81              	 .align 2
  82              	 .global APP_UART_Init
  83              	 .thumb
  84              	 .thumb_func
  86              	APP_UART_Init:
  87              	.LFB537:
  18:../sources/uart.c **** 
  19:../sources/uart.c **** void APP_UART_Init(void)
  20:../sources/uart.c **** {
  88              	 .loc 1 20 0
  89              	 .cfi_startproc
  90              	 
  91              	 
  92 0000 80B5     	 push {r7,lr}
  93              	.LCFI5:
  94              	 .cfi_def_cfa_offset 8
  95              	 .cfi_offset 7,-8
  96              	 .cfi_offset 14,-4
  97 0002 00AF     	 add r7,sp,#0
  98              	.LCFI6:
  99              	 .cfi_def_cfa_register 7
  21:../sources/uart.c ****     APP_UART_SendString(
 100              	 .loc 1 21 0
 101 0004 0148     	 ldr r0,.L5
 102 0006 FFF7FEFF 	 bl APP_UART_SendString
  22:../sources/uart.c ****         "Grupo 08\r\n"
  23:../sources/uart.c ****         "Gustavo - 1241402\r\n"
  24:../sources/uart.c ****         "Joao - 1241237\r\n");
  25:../sources/uart.c **** }
 103              	 .loc 1 25 0
 104 000a 80BD     	 pop {r7,pc}
 105              	.L6:
 106              	 .align 2
 107              	.L5:
 108 000c 00000000 	 .word .LC0
 109              	 .cfi_endproc
 110              	.LFE537:
 112              	 .section .text.APP_UART_Task,"ax",%progbits
 113              	 .align 2
 114              	 .global APP_UART_Task
 115              	 .thumb
 116              	 .thumb_func
 118              	APP_UART_Task:
 119              	.LFB538:
  26:../sources/uart.c **** 
  27:../sources/uart.c **** void APP_UART_Task(void)
  28:../sources/uart.c **** {
 120              	 .loc 1 28 0
 121              	 .cfi_startproc
 122              	 
 123              	 
 124 0000 80B5     	 push {r7,lr}
 125              	.LCFI7:
 126              	 .cfi_def_cfa_offset 8
 127              	 .cfi_offset 7,-8
 128              	 .cfi_offset 14,-4
 129 0002 00AF     	 add r7,sp,#0
 130              	.LCFI8:
 131              	 .cfi_def_cfa_register 7
  29:../sources/uart.c ****     if(UART_Receive(&UART_0,
 132              	 .loc 1 29 0
 133 0004 0A48     	 ldr r0,.L9
 134 0006 0B49     	 ldr r1,.L9+4
 135 0008 0122     	 movs r2,#1
 136 000a FFF7FEFF 	 bl UART_Receive
 137 000e 0346     	 mov r3,r0
 138 0010 002B     	 cmp r3,#0
 139 0012 0BD1     	 bne .L7
  30:../sources/uart.c ****                     &uart_data.rx_char,
  31:../sources/uart.c ****                     1) == UART_STATUS_SUCCESS)
  32:../sources/uart.c ****     {
  33:../sources/uart.c ****         if(uart_data.rx_char != 0)
 140              	 .loc 1 33 0
 141 0014 074B     	 ldr r3,.L9+4
 142 0016 1B78     	 ldrb r3,[r3]
 143 0018 002B     	 cmp r3,#0
 144 001a 07D0     	 beq .L7
  34:../sources/uart.c ****         {
  35:../sources/uart.c ****             APP_UART_ProcessCommand(
 145              	 .loc 1 35 0
 146 001c 054B     	 ldr r3,.L9+4
 147 001e 1B78     	 ldrb r3,[r3]
 148 0020 1846     	 mov r0,r3
 149 0022 FFF7FEFF 	 bl APP_UART_ProcessCommand
  36:../sources/uart.c ****                 uart_data.rx_char);
  37:../sources/uart.c **** 
  38:../sources/uart.c ****             uart_data.rx_char = 0;
 150              	 .loc 1 38 0
 151 0026 034B     	 ldr r3,.L9+4
 152 0028 0022     	 movs r2,#0
 153 002a 1A70     	 strb r2,[r3]
 154              	.L7:
  39:../sources/uart.c ****         }
  40:../sources/uart.c ****     }
  41:../sources/uart.c **** }
 155              	 .loc 1 41 0
 156 002c 80BD     	 pop {r7,pc}
 157              	.L10:
 158 002e 00BF     	 .align 2
 159              	.L9:
 160 0030 00000000 	 .word UART_0
 161 0034 00000000 	 .word uart_data
 162              	 .cfi_endproc
 163              	.LFE538:
 165              	 .section .rodata
 166 002e 0000     	 .align 2
 167              	.LC1:
 168 0030 426C696E 	 .ascii "Blink = %lu ms\015\012\000"
 168      6B203D20 
 168      256C7520 
 168      6D730D0A 
 168      00
 169 0041 000000   	 .align 2
 170              	.LC2:
 171 0044 4C454420 	 .ascii "LED = blinking\015\012\000"
 171      3D20626C 
 171      696E6B69 
 171      6E670D0A 
 171      00
 172 0055 000000   	 .align 2
 173              	.LC3:
 174 0058 4C454420 	 .ascii "LED = ON\015\012\000"
 174      3D204F4E 
 174      0D0A00
 175 0063 00       	 .align 2
 176              	.LC4:
 177 0064 41444320 	 .ascii "ADC = %d\015\012\000"
 177      3D202564 
 177      0D0A00
 178 006f 00       	 .align 2
 179              	.LC5:
 180 0070 54656D70 	 .ascii "Temp = %d.%02d C\015\012\000"
 180      203D2025 
 180      642E2530 
 180      32642043 
 180      0D0A00
 181 0083 00       	 .align 2
 182              	.LC6:
 183 0084 4572726F 	 .ascii "Erro AHT10\015\012\000"
 183      20414854 
 183      31300D0A 
 183      00
 184 0091 000000   	 .align 2
 185              	.LC7:
 186 0094 48756D20 	 .ascii "Hum = %d.%02d %%\015\012\000"
 186      3D202564 
 186      2E253032 
 186      64202525 
 186      0D0A00
 187 00a7 00       	 .align 2
 188              	.LC8:
 189 00a8 43414E20 	 .ascii "CAN ID %u / 0x%03X\015\012Temp = %d.%02d C\015\012H"
 189      49442025 
 189      75202F20 
 189      30782530 
 189      33580D0A 
 190 00cf 756D203D 	 .ascii "um = %d.%02d %%\015\012\000"
 190      2025642E 
 190      25303264 
 190      2025250D 
 190      0A00
 191 00e1 000000   	 .align 2
 192              	.LC9:
 193 00e4 4E6F766F 	 .ascii "Novo CAN TX ID = %u / 0x%03X\015\012\000"
 193      2043414E 
 193      20545820 
 193      4944203D 
 193      20257520 
 194 0103 00       	 .align 2
 195              	.LC10:
 196 0104 50616769 	 .ascii "Pagina Temperatura\015\012\000"
 196      6E612054 
 196      656D7065 
 196      72617475 
 196      72610D0A 
 197 0119 000000   	 .align 2
 198              	.LC11:
 199 011c 50616769 	 .ascii "Pagina CAN\015\012\000"
 199      6E612043 
 199      414E0D0A 
 199      00
 200 0129 000000   	 .section .text.APP_UART_ProcessCommand,"ax",%progbits
 201              	 .align 2
 202              	 .global APP_UART_ProcessCommand
 203              	 .thumb
 204              	 .thumb_func
 206              	APP_UART_ProcessCommand:
 207              	.LFB539:
  42:../sources/uart.c **** 
  43:../sources/uart.c **** void APP_UART_ProcessCommand(uint8_t cmd)
  44:../sources/uart.c **** {
 208              	 .loc 1 44 0
 209              	 .cfi_startproc
 210              	 
 211              	 
 212 0000 F0B5     	 push {r4,r5,r6,r7,lr}
 213              	.LCFI9:
 214              	 .cfi_def_cfa_offset 20
 215              	 .cfi_offset 4,-20
 216              	 .cfi_offset 5,-16
 217              	 .cfi_offset 6,-12
 218              	 .cfi_offset 7,-8
 219              	 .cfi_offset 14,-4
 220 0002 8FB0     	 sub sp,sp,#60
 221              	.LCFI10:
 222              	 .cfi_def_cfa_offset 80
 223 0004 06AF     	 add r7,sp,#24
 224              	.LCFI11:
 225              	 .cfi_def_cfa 7,56
 226 0006 0346     	 mov r3,r0
 227 0008 FB71     	 strb r3,[r7,#7]
  45:../sources/uart.c **** 	if(cmd == '+')
 228              	 .loc 1 45 0
 229 000a FB79     	 ldrb r3,[r7,#7]
 230 000c 2B2B     	 cmp r3,#43
 231 000e 10D1     	 bne .L12
  46:../sources/uart.c **** 	{
  47:../sources/uart.c **** 	    LED_SetSpeed(led.desired_ms + 100);
 232              	 .loc 1 47 0
 233 0010 B34B     	 ldr r3,.L31
 234 0012 5B68     	 ldr r3,[r3,#4]
 235 0014 6433     	 adds r3,r3,#100
 236 0016 1846     	 mov r0,r3
 237 0018 FFF7FEFF 	 bl LED_SetSpeed
  48:../sources/uart.c **** 
  49:../sources/uart.c **** 	    snprintf(uart_data.tx_buffer,
 238              	 .loc 1 49 0
 239 001c B04B     	 ldr r3,.L31
 240 001e 5B68     	 ldr r3,[r3,#4]
 241 0020 B048     	 ldr r0,.L31+4
 242 0022 8021     	 movs r1,#128
 243 0024 B04A     	 ldr r2,.L31+8
 244 0026 FFF7FEFF 	 bl snprintf
  50:../sources/uart.c **** 	             sizeof(uart_data.tx_buffer),
  51:../sources/uart.c **** 	             "Blink = %lu ms\r\n",
  52:../sources/uart.c **** 	             led.desired_ms);
  53:../sources/uart.c **** 
  54:../sources/uart.c **** 	    APP_UART_SendString(uart_data.tx_buffer);
 245              	 .loc 1 54 0
 246 002a AE48     	 ldr r0,.L31+4
 247 002c FFF7FEFF 	 bl APP_UART_SendString
 248 0030 35E0     	 b .L13
 249              	.L12:
  55:../sources/uart.c **** 	}
  56:../sources/uart.c **** 
  57:../sources/uart.c **** 	else if(cmd == '-')
 250              	 .loc 1 57 0
 251 0032 FB79     	 ldrb r3,[r7,#7]
 252 0034 2D2B     	 cmp r3,#45
 253 0036 14D1     	 bne .L14
  58:../sources/uart.c **** 	{
  59:../sources/uart.c **** 	    if(led.desired_ms > 100)
 254              	 .loc 1 59 0
 255 0038 A94B     	 ldr r3,.L31
 256 003a 5B68     	 ldr r3,[r3,#4]
 257 003c 642B     	 cmp r3,#100
 258 003e 05D9     	 bls .L15
  60:../sources/uart.c **** 	    {
  61:../sources/uart.c **** 	        LED_SetSpeed(led.desired_ms - 100);
 259              	 .loc 1 61 0
 260 0040 A74B     	 ldr r3,.L31
 261 0042 5B68     	 ldr r3,[r3,#4]
 262 0044 643B     	 subs r3,r3,#100
 263 0046 1846     	 mov r0,r3
 264 0048 FFF7FEFF 	 bl LED_SetSpeed
 265              	.L15:
  62:../sources/uart.c **** 	    }
  63:../sources/uart.c **** 
  64:../sources/uart.c **** 	    snprintf(uart_data.tx_buffer,
 266              	 .loc 1 64 0
 267 004c A44B     	 ldr r3,.L31
 268 004e 5B68     	 ldr r3,[r3,#4]
 269 0050 A448     	 ldr r0,.L31+4
 270 0052 8021     	 movs r1,#128
 271 0054 A44A     	 ldr r2,.L31+8
 272 0056 FFF7FEFF 	 bl snprintf
  65:../sources/uart.c **** 	             sizeof(uart_data.tx_buffer),
  66:../sources/uart.c **** 	             "Blink = %lu ms\r\n",
  67:../sources/uart.c **** 	             led.desired_ms);
  68:../sources/uart.c **** 
  69:../sources/uart.c **** 	    APP_UART_SendString(uart_data.tx_buffer);
 273              	 .loc 1 69 0
 274 005a A248     	 ldr r0,.L31+4
 275 005c FFF7FEFF 	 bl APP_UART_SendString
 276 0060 1DE0     	 b .L13
 277              	.L14:
  70:../sources/uart.c **** 	}
  71:../sources/uart.c **** 
  72:../sources/uart.c **** 	else if(cmd == 'l')
 278              	 .loc 1 72 0
 279 0062 FB79     	 ldrb r3,[r7,#7]
 280 0064 6C2B     	 cmp r3,#108
 281 0066 0DD1     	 bne .L16
  73:../sources/uart.c **** 	{
  74:../sources/uart.c **** 	    LED_ButtonTask();
 282              	 .loc 1 74 0
 283 0068 FFF7FEFF 	 bl LED_ButtonTask
  75:../sources/uart.c **** 
  76:../sources/uart.c **** 	    if(led.blink_mode)
 284              	 .loc 1 76 0
 285 006c 9C4B     	 ldr r3,.L31
 286 006e 1B78     	 ldrb r3,[r3]
 287 0070 002B     	 cmp r3,#0
 288 0072 03D0     	 beq .L17
  77:../sources/uart.c **** 	    {
  78:../sources/uart.c **** 	        APP_UART_SendString("LED = blinking\r\n");
 289              	 .loc 1 78 0
 290 0074 9D48     	 ldr r0,.L31+12
 291 0076 FFF7FEFF 	 bl APP_UART_SendString
 292 007a 10E0     	 b .L13
 293              	.L17:
  79:../sources/uart.c **** 	    }
  80:../sources/uart.c **** 	    else
  81:../sources/uart.c **** 	    {
  82:../sources/uart.c **** 	        APP_UART_SendString("LED = ON\r\n");
 294              	 .loc 1 82 0
 295 007c 9C48     	 ldr r0,.L31+16
 296 007e FFF7FEFF 	 bl APP_UART_SendString
 297 0082 0CE0     	 b .L13
 298              	.L16:
  83:../sources/uart.c **** 	    }
  84:../sources/uart.c **** 	}
  85:../sources/uart.c **** 
  86:../sources/uart.c **** 	else if(cmd == 'b')
 299              	 .loc 1 86 0
 300 0084 FB79     	 ldrb r3,[r7,#7]
 301 0086 622B     	 cmp r3,#98
 302 0088 09D1     	 bne .L13
  87:../sources/uart.c **** 	{
  88:../sources/uart.c **** 	    snprintf(uart_data.tx_buffer,
 303              	 .loc 1 88 0
 304 008a 954B     	 ldr r3,.L31
 305 008c 5B68     	 ldr r3,[r3,#4]
 306 008e 9548     	 ldr r0,.L31+4
 307 0090 8021     	 movs r1,#128
 308 0092 954A     	 ldr r2,.L31+8
 309 0094 FFF7FEFF 	 bl snprintf
  89:../sources/uart.c **** 	             sizeof(uart_data.tx_buffer),
  90:../sources/uart.c **** 	             "Blink = %lu ms\r\n",
  91:../sources/uart.c **** 	             led.desired_ms);
  92:../sources/uart.c **** 
  93:../sources/uart.c **** 	    APP_UART_SendString(uart_data.tx_buffer);
 310              	 .loc 1 93 0
 311 0098 9248     	 ldr r0,.L31+4
 312 009a FFF7FEFF 	 bl APP_UART_SendString
 313              	.L13:
  94:../sources/uart.c **** 	}
  95:../sources/uart.c **** 
  96:../sources/uart.c ****     if(cmd == 'a')
 314              	 .loc 1 96 0
 315 009e FB79     	 ldrb r3,[r7,#7]
 316 00a0 612B     	 cmp r3,#97
 317 00a2 0BD1     	 bne .L19
  97:../sources/uart.c ****     {
  98:../sources/uart.c ****         snprintf(uart_data.tx_buffer,
  99:../sources/uart.c ****                  sizeof(uart_data.tx_buffer),
 100:../sources/uart.c ****                  "ADC = %d\r\n",
 101:../sources/uart.c ****                  ADC_GetValue());
 318              	 .loc 1 101 0
 319 00a4 FFF7FEFF 	 bl ADC_GetValue
 320 00a8 0346     	 mov r3,r0
  98:../sources/uart.c ****                  sizeof(uart_data.tx_buffer),
 321              	 .loc 1 98 0
 322 00aa 8E48     	 ldr r0,.L31+4
 323 00ac 8021     	 movs r1,#128
 324 00ae 914A     	 ldr r2,.L31+20
 325 00b0 FFF7FEFF 	 bl snprintf
 102:../sources/uart.c **** 
 103:../sources/uart.c ****         APP_UART_SendString(
 326              	 .loc 1 103 0
 327 00b4 8B48     	 ldr r0,.L31+4
 328 00b6 FFF7FEFF 	 bl APP_UART_SendString
 329 00ba 0EE1     	 b .L11
 330              	.L19:
 104:../sources/uart.c ****             uart_data.tx_buffer);
 105:../sources/uart.c ****     }
 106:../sources/uart.c **** 
 107:../sources/uart.c ****     else if(cmd == 't')
 331              	 .loc 1 107 0
 332 00bc FB79     	 ldrb r3,[r7,#7]
 333 00be 742B     	 cmp r3,#116
 334 00c0 34D1     	 bne .L21
 108:../sources/uart.c ****     {
 109:../sources/uart.c ****         if(APP_AHT10_Read())
 335              	 .loc 1 109 0
 336 00c2 FFF7FEFF 	 bl APP_AHT10_Read
 337 00c6 0346     	 mov r3,r0
 338 00c8 002B     	 cmp r3,#0
 339 00ca 2BD0     	 beq .L22
 340              	.LBB2:
 110:../sources/uart.c ****         {
 111:../sources/uart.c ****             int temp =
 112:../sources/uart.c ****                 (int)(aht10.temperature * 100);
 341              	 .loc 1 112 0
 342 00cc 8A4B     	 ldr r3,.L31+24
 343 00ce D3ED007A 	 flds s15,[r3]
 344 00d2 9FED8A7A 	 flds s14,.L31+28
 345 00d6 67EE877A 	 fmuls s15,s15,s14
 111:../sources/uart.c ****                 (int)(aht10.temperature * 100);
 346              	 .loc 1 111 0
 347 00da FDEEE77A 	 ftosizs s15,s15
 348 00de 17EE903A 	 fmrs r3,s15
 349 00e2 FB61     	 str r3,[r7,#28]
 113:../sources/uart.c **** 
 114:../sources/uart.c ****             snprintf(
 350              	 .loc 1 114 0
 351 00e4 FB69     	 ldr r3,[r7,#28]
 352 00e6 864A     	 ldr r2,.L31+32
 353 00e8 82FB0312 	 smull r1,r2,r2,r3
 354 00ec 5211     	 asrs r2,r2,#5
 355 00ee DB17     	 asrs r3,r3,#31
 356 00f0 D41A     	 subs r4,r2,r3
 115:../sources/uart.c ****                 uart_data.tx_buffer,
 116:../sources/uart.c ****                 sizeof(uart_data.tx_buffer),
 117:../sources/uart.c ****                 "Temp = %d.%02d C\r\n",
 118:../sources/uart.c ****                 temp/100,
 119:../sources/uart.c ****                 abs(temp%100));
 357              	 .loc 1 119 0
 358 00f2 FA69     	 ldr r2,[r7,#28]
 359 00f4 824B     	 ldr r3,.L31+32
 360 00f6 83FB0213 	 smull r1,r3,r3,r2
 361 00fa 5911     	 asrs r1,r3,#5
 362 00fc D317     	 asrs r3,r2,#31
 363 00fe CB1A     	 subs r3,r1,r3
 364 0100 6421     	 movs r1,#100
 365 0102 01FB03F3 	 mul r3,r1,r3
 366 0106 D31A     	 subs r3,r2,r3
 114:../sources/uart.c ****                 uart_data.tx_buffer,
 367              	 .loc 1 114 0
 368 0108 002B     	 cmp r3,#0
 369 010a B8BF     	 it lt
 370 010c 5B42     	 rsblt r3,r3,#0
 371 010e 0093     	 str r3,[sp]
 372 0110 7448     	 ldr r0,.L31+4
 373 0112 8021     	 movs r1,#128
 374 0114 7B4A     	 ldr r2,.L31+36
 375 0116 2346     	 mov r3,r4
 376 0118 FFF7FEFF 	 bl snprintf
 120:../sources/uart.c **** 
 121:../sources/uart.c ****             APP_UART_SendString(
 377              	 .loc 1 121 0
 378 011c 7148     	 ldr r0,.L31+4
 379 011e FFF7FEFF 	 bl APP_UART_SendString
 380              	.LBE2:
 381 0122 DAE0     	 b .L11
 382              	.L22:
 122:../sources/uart.c ****                 uart_data.tx_buffer);
 123:../sources/uart.c ****         }
 124:../sources/uart.c ****         else
 125:../sources/uart.c ****         {
 126:../sources/uart.c ****             APP_UART_SendString(
 383              	 .loc 1 126 0
 384 0124 7848     	 ldr r0,.L31+40
 385 0126 FFF7FEFF 	 bl APP_UART_SendString
 386 012a D6E0     	 b .L11
 387              	.L21:
 127:../sources/uart.c ****                 "Erro AHT10\r\n");
 128:../sources/uart.c ****         }
 129:../sources/uart.c ****     }
 130:../sources/uart.c **** 
 131:../sources/uart.c ****     else if(cmd == 'h')
 388              	 .loc 1 131 0
 389 012c FB79     	 ldrb r3,[r7,#7]
 390 012e 682B     	 cmp r3,#104
 391 0130 34D1     	 bne .L24
 132:../sources/uart.c ****     {
 133:../sources/uart.c ****         if(APP_AHT10_Read())
 392              	 .loc 1 133 0
 393 0132 FFF7FEFF 	 bl APP_AHT10_Read
 394 0136 0346     	 mov r3,r0
 395 0138 002B     	 cmp r3,#0
 396 013a 2BD0     	 beq .L25
 397              	.LBB3:
 134:../sources/uart.c ****         {
 135:../sources/uart.c ****             int hum =
 136:../sources/uart.c ****                 (int)(aht10.humidity * 100);
 398              	 .loc 1 136 0
 399 013c 6E4B     	 ldr r3,.L31+24
 400 013e D3ED017A 	 flds s15,[r3,#4]
 401 0142 9FED6E7A 	 flds s14,.L31+28
 402 0146 67EE877A 	 fmuls s15,s15,s14
 135:../sources/uart.c ****                 (int)(aht10.humidity * 100);
 403              	 .loc 1 135 0
 404 014a FDEEE77A 	 ftosizs s15,s15
 405 014e 17EE903A 	 fmrs r3,s15
 406 0152 BB61     	 str r3,[r7,#24]
 137:../sources/uart.c **** 
 138:../sources/uart.c ****             snprintf(
 407              	 .loc 1 138 0
 408 0154 BB69     	 ldr r3,[r7,#24]
 409 0156 6A4A     	 ldr r2,.L31+32
 410 0158 82FB0312 	 smull r1,r2,r2,r3
 411 015c 5211     	 asrs r2,r2,#5
 412 015e DB17     	 asrs r3,r3,#31
 413 0160 D41A     	 subs r4,r2,r3
 139:../sources/uart.c ****                 uart_data.tx_buffer,
 140:../sources/uart.c ****                 sizeof(uart_data.tx_buffer),
 141:../sources/uart.c ****                 "Hum = %d.%02d %%\r\n",
 142:../sources/uart.c ****                 hum/100,
 143:../sources/uart.c ****                 abs(hum%100));
 414              	 .loc 1 143 0
 415 0162 BA69     	 ldr r2,[r7,#24]
 416 0164 664B     	 ldr r3,.L31+32
 417 0166 83FB0213 	 smull r1,r3,r3,r2
 418 016a 5911     	 asrs r1,r3,#5
 419 016c D317     	 asrs r3,r2,#31
 420 016e CB1A     	 subs r3,r1,r3
 421 0170 6421     	 movs r1,#100
 422 0172 01FB03F3 	 mul r3,r1,r3
 423 0176 D31A     	 subs r3,r2,r3
 138:../sources/uart.c ****                 uart_data.tx_buffer,
 424              	 .loc 1 138 0
 425 0178 002B     	 cmp r3,#0
 426 017a B8BF     	 it lt
 427 017c 5B42     	 rsblt r3,r3,#0
 428 017e 0093     	 str r3,[sp]
 429 0180 5848     	 ldr r0,.L31+4
 430 0182 8021     	 movs r1,#128
 431 0184 614A     	 ldr r2,.L31+44
 432 0186 2346     	 mov r3,r4
 433 0188 FFF7FEFF 	 bl snprintf
 144:../sources/uart.c **** 
 145:../sources/uart.c ****             APP_UART_SendString(
 434              	 .loc 1 145 0
 435 018c 5548     	 ldr r0,.L31+4
 436 018e FFF7FEFF 	 bl APP_UART_SendString
 437              	.LBE3:
 438 0192 A2E0     	 b .L11
 439              	.L25:
 146:../sources/uart.c ****                 uart_data.tx_buffer);
 147:../sources/uart.c ****         }
 148:../sources/uart.c ****         else
 149:../sources/uart.c ****         {
 150:../sources/uart.c ****             APP_UART_SendString(
 440              	 .loc 1 150 0
 441 0194 5C48     	 ldr r0,.L31+40
 442 0196 FFF7FEFF 	 bl APP_UART_SendString
 443 019a 9EE0     	 b .L11
 444              	.L24:
 151:../sources/uart.c ****                 "Erro AHT10\r\n");
 152:../sources/uart.c ****         }
 153:../sources/uart.c ****     }
 154:../sources/uart.c **** 
 155:../sources/uart.c ****     else if(cmd == 'c')
 445              	 .loc 1 155 0
 446 019c FB79     	 ldrb r3,[r7,#7]
 447 019e 632B     	 cmp r3,#99
 448 01a0 5AD1     	 bne .L27
 449              	.LBB4:
 156:../sources/uart.c ****     {
 157:../sources/uart.c ****         APP_AHT10_Read();
 450              	 .loc 1 157 0
 451 01a2 FFF7FEFF 	 bl APP_AHT10_Read
 158:../sources/uart.c **** 
 159:../sources/uart.c ****         int temp =
 160:../sources/uart.c ****             (int)(aht10.temperature * 100);
 452              	 .loc 1 160 0
 453 01a6 544B     	 ldr r3,.L31+24
 454 01a8 D3ED007A 	 flds s15,[r3]
 455 01ac 9FED537A 	 flds s14,.L31+28
 456 01b0 67EE877A 	 fmuls s15,s15,s14
 159:../sources/uart.c ****             (int)(aht10.temperature * 100);
 457              	 .loc 1 159 0
 458 01b4 FDEEE77A 	 ftosizs s15,s15
 459 01b8 17EE903A 	 fmrs r3,s15
 460 01bc 7B61     	 str r3,[r7,#20]
 161:../sources/uart.c **** 
 162:../sources/uart.c ****         int hum =
 163:../sources/uart.c ****             (int)(aht10.humidity * 100);
 461              	 .loc 1 163 0
 462 01be 4E4B     	 ldr r3,.L31+24
 463 01c0 D3ED017A 	 flds s15,[r3,#4]
 464 01c4 9FED4D7A 	 flds s14,.L31+28
 465 01c8 67EE877A 	 fmuls s15,s15,s14
 162:../sources/uart.c ****             (int)(aht10.humidity * 100);
 466              	 .loc 1 162 0
 467 01cc FDEEE77A 	 ftosizs s15,s15
 468 01d0 17EE903A 	 fmrs r3,s15
 469 01d4 3B61     	 str r3,[r7,#16]
 164:../sources/uart.c **** 
 165:../sources/uart.c ****         uint16_t id =
 470              	 .loc 1 165 0
 471 01d6 FFF7FEFF 	 bl APP_CAN_GetTxID
 472 01da 0346     	 mov r3,r0
 473 01dc FB81     	 strh r3,[r7,#14]
 166:../sources/uart.c ****             APP_CAN_GetTxID();
 167:../sources/uart.c **** 
 168:../sources/uart.c ****         snprintf(
 474              	 .loc 1 168 0
 475 01de B7F80EE0 	 ldrh lr,[r7,#14]
 476 01e2 FD89     	 ldrh r5,[r7,#14]
 477 01e4 7B69     	 ldr r3,[r7,#20]
 478 01e6 464A     	 ldr r2,.L31+32
 479 01e8 82FB0312 	 smull r1,r2,r2,r3
 480 01ec 5211     	 asrs r2,r2,#5
 481 01ee DB17     	 asrs r3,r3,#31
 482 01f0 D41A     	 subs r4,r2,r3
 169:../sources/uart.c ****             uart_data.tx_buffer,
 170:../sources/uart.c ****             sizeof(uart_data.tx_buffer),
 171:../sources/uart.c **** 
 172:../sources/uart.c ****             "CAN ID %u / 0x%03X\r\n"
 173:../sources/uart.c ****             "Temp = %d.%02d C\r\n"
 174:../sources/uart.c ****             "Hum = %d.%02d %%\r\n",
 175:../sources/uart.c **** 
 176:../sources/uart.c ****             id,
 177:../sources/uart.c ****             id,
 178:../sources/uart.c **** 
 179:../sources/uart.c ****             temp/100,
 180:../sources/uart.c ****             abs(temp%100),
 483              	 .loc 1 180 0
 484 01f2 7A69     	 ldr r2,[r7,#20]
 485 01f4 424B     	 ldr r3,.L31+32
 486 01f6 83FB0213 	 smull r1,r3,r3,r2
 487 01fa 5911     	 asrs r1,r3,#5
 488 01fc D317     	 asrs r3,r2,#31
 489 01fe CB1A     	 subs r3,r1,r3
 490 0200 6421     	 movs r1,#100
 491 0202 01FB03F3 	 mul r3,r1,r3
 492 0206 D31A     	 subs r3,r2,r3
 168:../sources/uart.c ****             uart_data.tx_buffer,
 493              	 .loc 1 168 0
 494 0208 83EAE370 	 eor r0,r3,r3,asr#31
 495 020c A0EBE370 	 sub r0,r0,r3,asr#31
 496 0210 3B69     	 ldr r3,[r7,#16]
 497 0212 3B4A     	 ldr r2,.L31+32
 498 0214 82FB0312 	 smull r1,r2,r2,r3
 499 0218 5211     	 asrs r2,r2,#5
 500 021a DB17     	 asrs r3,r3,#31
 501 021c D11A     	 subs r1,r2,r3
 181:../sources/uart.c **** 
 182:../sources/uart.c ****             hum/100,
 183:../sources/uart.c ****             abs(hum%100)
 502              	 .loc 1 183 0
 503 021e 3A69     	 ldr r2,[r7,#16]
 504 0220 374B     	 ldr r3,.L31+32
 505 0222 83FB0263 	 smull r6,r3,r3,r2
 506 0226 5E11     	 asrs r6,r3,#5
 507 0228 D317     	 asrs r3,r2,#31
 508 022a F31A     	 subs r3,r6,r3
 509 022c 6426     	 movs r6,#100
 510 022e 06FB03F3 	 mul r3,r6,r3
 511 0232 D31A     	 subs r3,r2,r3
 168:../sources/uart.c ****             uart_data.tx_buffer,
 512              	 .loc 1 168 0
 513 0234 002B     	 cmp r3,#0
 514 0236 B8BF     	 it lt
 515 0238 5B42     	 rsblt r3,r3,#0
 516 023a 0095     	 str r5,[sp]
 517 023c 0194     	 str r4,[sp,#4]
 518 023e 0290     	 str r0,[sp,#8]
 519 0240 0391     	 str r1,[sp,#12]
 520 0242 0493     	 str r3,[sp,#16]
 521 0244 2748     	 ldr r0,.L31+4
 522 0246 8021     	 movs r1,#128
 523 0248 314A     	 ldr r2,.L31+48
 524 024a 7346     	 mov r3,lr
 525 024c FFF7FEFF 	 bl snprintf
 184:../sources/uart.c ****         );
 185:../sources/uart.c **** 
 186:../sources/uart.c ****         APP_UART_SendString(
 526              	 .loc 1 186 0
 527 0250 2448     	 ldr r0,.L31+4
 528 0252 FFF7FEFF 	 bl APP_UART_SendString
 529              	.LBE4:
 530 0256 40E0     	 b .L11
 531              	.L27:
 187:../sources/uart.c ****             uart_data.tx_buffer);
 188:../sources/uart.c ****     }
 189:../sources/uart.c **** 
 190:../sources/uart.c ****     else if(cmd == 'n')
 532              	 .loc 1 190 0
 533 0258 FB79     	 ldrb r3,[r7,#7]
 534 025a 6E2B     	 cmp r3,#110
 535 025c 13D1     	 bne .L28
 191:../sources/uart.c ****     {
 192:../sources/uart.c ****         APP_CAN_NextTxID();
 536              	 .loc 1 192 0
 537 025e FFF7FEFF 	 bl APP_CAN_NextTxID
 193:../sources/uart.c **** 
 194:../sources/uart.c ****         snprintf(
 195:../sources/uart.c ****             uart_data.tx_buffer,
 196:../sources/uart.c ****             sizeof(uart_data.tx_buffer),
 197:../sources/uart.c **** 
 198:../sources/uart.c ****             "Novo CAN TX ID = %u / 0x%03X\r\n",
 199:../sources/uart.c **** 
 200:../sources/uart.c ****             APP_CAN_GetTxID(),
 538              	 .loc 1 200 0
 539 0262 FFF7FEFF 	 bl APP_CAN_GetTxID
 540 0266 0346     	 mov r3,r0
 194:../sources/uart.c ****             uart_data.tx_buffer,
 541              	 .loc 1 194 0
 542 0268 1C46     	 mov r4,r3
 201:../sources/uart.c ****             APP_CAN_GetTxID()
 543              	 .loc 1 201 0
 544 026a FFF7FEFF 	 bl APP_CAN_GetTxID
 545 026e 0346     	 mov r3,r0
 194:../sources/uart.c ****             uart_data.tx_buffer,
 546              	 .loc 1 194 0
 547 0270 0093     	 str r3,[sp]
 548 0272 1C48     	 ldr r0,.L31+4
 549 0274 8021     	 movs r1,#128
 550 0276 274A     	 ldr r2,.L31+52
 551 0278 2346     	 mov r3,r4
 552 027a FFF7FEFF 	 bl snprintf
 202:../sources/uart.c ****         );
 203:../sources/uart.c **** 
 204:../sources/uart.c ****         APP_UART_SendString(
 553              	 .loc 1 204 0
 554 027e 1948     	 ldr r0,.L31+4
 555 0280 FFF7FEFF 	 bl APP_UART_SendString
 556 0284 29E0     	 b .L11
 557              	.L28:
 205:../sources/uart.c ****             uart_data.tx_buffer);
 206:../sources/uart.c ****     }
 207:../sources/uart.c **** 
 208:../sources/uart.c ****     else if(cmd == 'p')
 558              	 .loc 1 208 0
 559 0286 FB79     	 ldrb r3,[r7,#7]
 560 0288 702B     	 cmp r3,#112
 561 028a 13D1     	 bne .L29
 209:../sources/uart.c ****     {
 210:../sources/uart.c ****         APP_CAN_PrevTxID();
 562              	 .loc 1 210 0
 563 028c FFF7FEFF 	 bl APP_CAN_PrevTxID
 211:../sources/uart.c **** 
 212:../sources/uart.c ****         snprintf(
 213:../sources/uart.c ****             uart_data.tx_buffer,
 214:../sources/uart.c ****             sizeof(uart_data.tx_buffer),
 215:../sources/uart.c **** 
 216:../sources/uart.c ****             "Novo CAN TX ID = %u / 0x%03X\r\n",
 217:../sources/uart.c **** 
 218:../sources/uart.c ****             APP_CAN_GetTxID(),
 564              	 .loc 1 218 0
 565 0290 FFF7FEFF 	 bl APP_CAN_GetTxID
 566 0294 0346     	 mov r3,r0
 212:../sources/uart.c ****             uart_data.tx_buffer,
 567              	 .loc 1 212 0
 568 0296 1C46     	 mov r4,r3
 219:../sources/uart.c ****             APP_CAN_GetTxID()
 569              	 .loc 1 219 0
 570 0298 FFF7FEFF 	 bl APP_CAN_GetTxID
 571 029c 0346     	 mov r3,r0
 212:../sources/uart.c ****             uart_data.tx_buffer,
 572              	 .loc 1 212 0
 573 029e 0093     	 str r3,[sp]
 574 02a0 1048     	 ldr r0,.L31+4
 575 02a2 8021     	 movs r1,#128
 576 02a4 1B4A     	 ldr r2,.L31+52
 577 02a6 2346     	 mov r3,r4
 578 02a8 FFF7FEFF 	 bl snprintf
 220:../sources/uart.c ****         );
 221:../sources/uart.c **** 
 222:../sources/uart.c ****         APP_UART_SendString(
 579              	 .loc 1 222 0
 580 02ac 0D48     	 ldr r0,.L31+4
 581 02ae FFF7FEFF 	 bl APP_UART_SendString
 582 02b2 12E0     	 b .L11
 583              	.L29:
 223:../sources/uart.c ****             uart_data.tx_buffer);
 224:../sources/uart.c ****     }
 225:../sources/uart.c ****     else if(cmd == '1')
 584              	 .loc 1 225 0
 585 02b4 FB79     	 ldrb r3,[r7,#7]
 586 02b6 312B     	 cmp r3,#49
 587 02b8 06D1     	 bne .L30
 226:../sources/uart.c ****     {
 227:../sources/uart.c ****         LCD_SetPage(0);
 588              	 .loc 1 227 0
 589 02ba 0020     	 movs r0,#0
 590 02bc FFF7FEFF 	 bl LCD_SetPage
 228:../sources/uart.c **** 
 229:../sources/uart.c ****         APP_UART_SendString("Pagina Temperatura\r\n");
 591              	 .loc 1 229 0
 592 02c0 1548     	 ldr r0,.L31+56
 593 02c2 FFF7FEFF 	 bl APP_UART_SendString
 594 02c6 08E0     	 b .L11
 595              	.L30:
 230:../sources/uart.c ****     }
 231:../sources/uart.c **** 
 232:../sources/uart.c ****     else if(cmd == '2')
 596              	 .loc 1 232 0
 597 02c8 FB79     	 ldrb r3,[r7,#7]
 598 02ca 322B     	 cmp r3,#50
 599 02cc 05D1     	 bne .L11
 233:../sources/uart.c ****     {
 234:../sources/uart.c ****         LCD_SetPage(1);
 600              	 .loc 1 234 0
 601 02ce 0120     	 movs r0,#1
 602 02d0 FFF7FEFF 	 bl LCD_SetPage
 235:../sources/uart.c **** 
 236:../sources/uart.c ****         APP_UART_SendString("Pagina CAN\r\n");
 603              	 .loc 1 236 0
 604 02d4 1148     	 ldr r0,.L31+60
 605 02d6 FFF7FEFF 	 bl APP_UART_SendString
 606              	.L11:
 237:../sources/uart.c ****     }
 238:../sources/uart.c **** }
 607              	 .loc 1 238 0
 608 02da 2437     	 adds r7,r7,#36
 609              	.LCFI12:
 610              	 .cfi_def_cfa_offset 20
 611 02dc BD46     	 mov sp,r7
 612              	.LCFI13:
 613              	 .cfi_def_cfa_register 13
 614              	 
 615 02de F0BD     	 pop {r4,r5,r6,r7,pc}
 616              	.L32:
 617              	 .align 2
 618              	.L31:
 619 02e0 00000000 	 .word led
 620 02e4 01000000 	 .word uart_data+1
 621 02e8 30000000 	 .word .LC1
 622 02ec 44000000 	 .word .LC2
 623 02f0 58000000 	 .word .LC3
 624 02f4 64000000 	 .word .LC4
 625 02f8 00000000 	 .word aht10
 626 02fc 0000C842 	 .word 1120403456
 627 0300 1F85EB51 	 .word 1374389535
 628 0304 70000000 	 .word .LC5
 629 0308 84000000 	 .word .LC6
 630 030c 94000000 	 .word .LC7
 631 0310 A8000000 	 .word .LC8
 632 0314 E4000000 	 .word .LC9
 633 0318 04010000 	 .word .LC10
 634 031c 1C010000 	 .word .LC11
 635              	 .cfi_endproc
 636              	.LFE539:
 638              	 .text
 639              	.Letext0:
 640              	 .file 2 "c:\\infineon\\tools\\dave ide\\4.5.0.202105191637\\eclipse\\arm-gcc-49\\arm-none-eabi\\include\\machine\\_default_types.h"
 641              	 .file 3 "c:\\infineon\\tools\\dave ide\\4.5.0.202105191637\\eclipse\\arm-gcc-49\\arm-none-eabi\\include\\stdint.h"
 642              	 .file 4 "C:/Infineon/Tools/DAVE IDE/4.5.0.202105191637/eclipse/workspace/SISEM_2026_2DA_08_A/Libraries/XMCLib/inc/xmc_gpio.h"
 643              	 .file 5 "C:/Infineon/Tools/DAVE IDE/4.5.0.202105191637/eclipse/workspace/SISEM_2026_2DA_08_A/Libraries/XMCLib/inc/xmc4_gpio.h"
 644              	 .file 6 "C:/Infineon/Tools/DAVE IDE/4.5.0.202105191637/eclipse/workspace/SISEM_2026_2DA_08_A/Libraries/XMCLib/inc/xmc_usic.h"
 645              	 .file 7 "C:/Infineon/Tools/DAVE IDE/4.5.0.202105191637/eclipse/workspace/SISEM_2026_2DA_08_A/Libraries/XMCLib/inc/xmc_uart.h"
 646              	 .file 8 "C:/Infineon/Tools/DAVE IDE/4.5.0.202105191637/eclipse/workspace/SISEM_2026_2DA_08_A/Dave/Generated/UART/uart.h"
 647              	 .file 9 "C:/Infineon/Tools/DAVE IDE/4.5.0.202105191637/eclipse/workspace/SISEM_2026_2DA_08_A/headers/uart.h"
 648              	 .file 10 "C:/Infineon/Tools/DAVE IDE/4.5.0.202105191637/eclipse/workspace/SISEM_2026_2DA_08_A/headers/led.h"
 649              	 .file 11 "C:/Infineon/Tools/DAVE IDE/4.5.0.202105191637/eclipse/workspace/SISEM_2026_2DA_08_A/headers/aht10.h"
 650              	 .file 12 "C:/Infineon/Tools/DAVE IDE/4.5.0.202105191637/eclipse/workspace/SISEM_2026_2DA_08_A/Libraries/CMSIS/Include/cmsis_gcc.h"
 651              	 .file 13 "C:/Infineon/Tools/DAVE IDE/4.5.0.202105191637/eclipse/workspace/SISEM_2026_2DA_08_A/Libraries/CMSIS/Include/core_cm4.h"
 652              	 .file 14 "C:/Infineon/Tools/DAVE IDE/4.5.0.202105191637/eclipse/workspace/SISEM_2026_2DA_08_A/Libraries/CMSIS/Infineon/XMC4200_series/Include/system_XMC4200.h"
 653              	 .file 15 "C:/Infineon/Tools/DAVE IDE/4.5.0.202105191637/eclipse/workspace/SISEM_2026_2DA_08_A/Dave/Generated/UART/uart_extern.h"